
/Users/kojihirai/Library/Caches/arduino/sketches/F6C9830418E9C76FEF2389F507DD9F10/teensy.ino.elf:     file format elf32-littlearm


Disassembly of section .text.code:

60001400 <memory_copy>:
	if (dest == src) return;
	do {
		*dest++ = *src++;
	} while (dest < dest_end);
#else
	asm volatile(
60001400:	4281      	cmp	r1, r0
60001402:	d005      	beq.n	60001410 <memory_copy+0x10>
60001404:	f851 3b04 	ldr.w	r3, [r1], #4
60001408:	f840 3b04 	str.w	r3, [r0], #4
6000140c:	4282      	cmp	r2, r0
6000140e:	d8f9      	bhi.n	60001404 <memory_copy+0x4>
	"	cmp	%[end], %[dest]		\n"
	"	bhi.n	1b			\n"
	"2:					\n"
	: [dest] "+r" (dest), [src] "+r" (src) : [end] "r" (dest_end) : "r3", "memory");
#endif
}
60001410:	4770      	bx	lr
60001412:	bf00      	nop

60001414 <memory_clear.constprop.0>:
#if 0
	while (dest < dest_end) {
		*dest++ = 0;
	}
#else
	asm volatile(
60001414:	4a04      	ldr	r2, [pc, #16]	; (60001428 <memory_clear.constprop.0+0x14>)
60001416:	4905      	ldr	r1, [pc, #20]	; (6000142c <memory_clear.constprop.0+0x18>)
60001418:	f04f 0300 	mov.w	r3, #0
6000141c:	f842 3b04 	str.w	r3, [r2], #4
60001420:	4291      	cmp	r1, r2
60001422:	d8fb      	bhi.n	6000141c <memory_clear.constprop.0+0x8>
	"1:	str.w	r3, [%[dest]], #4	\n"
	"	cmp	%[end], %[dest]		\n"
	"	bhi.n	1b			\n"
	: [dest] "+r" (dest) : [end] "r" (dest_end) : "r3", "memory");
#endif
}
60001424:	4770      	bx	lr
60001426:	bf00      	nop
60001428:	20000ac0 	.word	0x20000ac0
6000142c:	20000d80 	.word	0x20000d80

60001430 <ResetHandler2>:
{
60001430:	e92d 4888 	stmdb	sp!, {r3, r7, fp, lr}
	__asm__ volatile("dsb":::"memory");
60001434:	f3bf 8f4f 	dsb	sy
	asm volatile("nop");
60001438:	bf00      	nop
	asm volatile("nop");
6000143a:	bf00      	nop
	asm volatile("nop");
6000143c:	bf00      	nop
	asm volatile("nop");
6000143e:	bf00      	nop
	startup_early_hook(); // must be in FLASHMEM, as ITCM is not yet initialized!
60001440:	f000 f940 	bl	600016c4 <startup_default_early_hook>
	PMU_MISC0_SET = 1<<3; //Use bandgap-based bias currents for best performance (Page 1175)
60001444:	4b67      	ldr	r3, [pc, #412]	; (600015e4 <ResetHandler2+0x1b4>)
60001446:	2208      	movs	r2, #8
60001448:	f8c3 2154 	str.w	r2, [r3, #340]	; 0x154
	asm volatile("nop");
6000144c:	bf00      	nop
	asm volatile("nop");
6000144e:	bf00      	nop
	asm volatile("nop");
60001450:	bf00      	nop
	asm volatile("nop");
60001452:	bf00      	nop
	asm volatile("nop");
60001454:	bf00      	nop
	asm volatile("nop");
60001456:	bf00      	nop
	asm volatile("nop");
60001458:	bf00      	nop
	asm volatile("nop");
6000145a:	bf00      	nop
	asm volatile("nop");
6000145c:	bf00      	nop
	asm volatile("nop");
6000145e:	bf00      	nop
	asm volatile("nop");
60001460:	bf00      	nop
	asm volatile("nop");
60001462:	bf00      	nop
	asm volatile("nop");
60001464:	bf00      	nop
	asm volatile("nop");
60001466:	bf00      	nop
	asm volatile("nop");
60001468:	bf00      	nop
	asm volatile("nop");
6000146a:	bf00      	nop
	memory_copy(&_stext, &_stextload, &_etext);
6000146c:	4a5e      	ldr	r2, [pc, #376]	; (600015e8 <ResetHandler2+0x1b8>)
6000146e:	495f      	ldr	r1, [pc, #380]	; (600015ec <ResetHandler2+0x1bc>)
60001470:	485f      	ldr	r0, [pc, #380]	; (600015f0 <ResetHandler2+0x1c0>)
60001472:	f7ff ffc5 	bl	60001400 <memory_copy>
	memory_copy(&_sdata, &_sdataload, &_edata);
60001476:	4a5f      	ldr	r2, [pc, #380]	; (600015f4 <ResetHandler2+0x1c4>)
60001478:	495f      	ldr	r1, [pc, #380]	; (600015f8 <ResetHandler2+0x1c8>)
6000147a:	4860      	ldr	r0, [pc, #384]	; (600015fc <ResetHandler2+0x1cc>)
6000147c:	f7ff ffc0 	bl	60001400 <memory_copy>
	memory_clear(&_sbss, &_ebss);
60001480:	4c5f      	ldr	r4, [pc, #380]	; (60001600 <ResetHandler2+0x1d0>)
60001482:	f7ff ffc7 	bl	60001414 <memory_clear.constprop.0>
	SCB_CPACR = 0x00F00000;
60001486:	f44f 0070 	mov.w	r0, #15728640	; 0xf00000
6000148a:	f04f 21e0 	mov.w	r1, #3758153728	; 0xe000e000
	for (i=0; i < NVIC_NUM_INTERRUPTS + 16; i++) _VectorsRam[i] = &unused_interrupt_vector;
6000148e:	2300      	movs	r3, #0
60001490:	4a5c      	ldr	r2, [pc, #368]	; (60001604 <ResetHandler2+0x1d4>)
	SCB_CPACR = 0x00F00000;
60001492:	f8c1 0d88 	str.w	r0, [r1, #3464]	; 0xd88
	for (i=0; i < NVIC_NUM_INTERRUPTS + 16; i++) _VectorsRam[i] = &unused_interrupt_vector;
60001496:	f844 2023 	str.w	r2, [r4, r3, lsl #2]
6000149a:	3301      	adds	r3, #1
6000149c:	2bb0      	cmp	r3, #176	; 0xb0
6000149e:	d1fa      	bne.n	60001496 <ResetHandler2+0x66>
600014a0:	4b59      	ldr	r3, [pc, #356]	; (60001608 <ResetHandler2+0x1d8>)
	for (i=0; i < NVIC_NUM_INTERRUPTS; i++) NVIC_SET_PRIORITY(i, 128);
600014a2:	2180      	movs	r1, #128	; 0x80
600014a4:	4a59      	ldr	r2, [pc, #356]	; (6000160c <ResetHandler2+0x1dc>)
600014a6:	f803 1b01 	strb.w	r1, [r3], #1
600014aa:	4293      	cmp	r3, r2
600014ac:	d1fb      	bne.n	600014a6 <ResetHandler2+0x76>
	SCB_VTOR = (uint32_t)_VectorsRam;
600014ae:	f04f 25e0 	mov.w	r5, #3758153728	; 0xe000e000
	CCM_ANALOG_PFD_528_SET = (1 << 31) | (1 << 23) | (1 << 15) | (1 << 7);
600014b2:	4e4c      	ldr	r6, [pc, #304]	; (600015e4 <ResetHandler2+0x1b4>)
600014b4:	f04f 3980 	mov.w	r9, #2155905152	; 0x80808080
	CCM_ANALOG_PFD_528 = 0x2018101B; // PFD0:352, PFD1:594, PFD2:396, PFD3:297 MHz 	
600014b8:	f8df b180 	ldr.w	fp, [pc, #384]	; 6000163c <ResetHandler2+0x20c>
	CCM_ANALOG_PFD_480 = 0x13110D0C; // PFD0:720, PFD1:664, PFD2:508, PFD3:454 MHz
600014bc:	f8df a180 	ldr.w	sl, [pc, #384]	; 60001640 <ResetHandler2+0x210>
	IOMUXC_GPR_GPR26 = 0xFFFFFFFF;
600014c0:	f04f 31ff 	mov.w	r1, #4294967295	; 0xffffffff
	SCB_VTOR = (uint32_t)_VectorsRam;
600014c4:	f8c5 4d08 	str.w	r4, [r5, #3336]	; 0xd08
	SYST_CVR = 0;
600014c8:	2700      	movs	r7, #0
	CCM_ANALOG_PFD_528_SET = (1 << 31) | (1 << 23) | (1 << 15) | (1 << 7);
600014ca:	f8c6 9104 	str.w	r9, [r6, #260]	; 0x104
	CCM_ANALOG_PFD_528 = 0x2018101B; // PFD0:352, PFD1:594, PFD2:396, PFD3:297 MHz 	
600014ce:	f8c6 b100 	str.w	fp, [r6, #256]	; 0x100
	CCM_ANALOG_PFD_480_SET = (1 << 31) | (1 << 23) | (1 << 15) | (1 << 7);	
600014d2:	f8c6 90f4 	str.w	r9, [r6, #244]	; 0xf4
	CCM_ANALOG_PFD_480 = 0x13110D0C; // PFD0:720, PFD1:664, PFD2:508, PFD3:454 MHz
600014d6:	f8c6 a0f0 	str.w	sl, [r6, #240]	; 0xf0
	SCB_SHCSR |= SCB_SHCSR_MEMFAULTENA | SCB_SHCSR_BUSFAULTENA | SCB_SHCSR_USGFAULTENA;
600014da:	f8d5 3d24 	ldr.w	r3, [r5, #3364]	; 0xd24
	CCM_CSCMR1 = (CCM_CSCMR1 & ~CCM_CSCMR1_PERCLK_PODF(0x3F)) | CCM_CSCMR1_PERCLK_CLK_SEL;
600014de:	f8df 8164 	ldr.w	r8, [pc, #356]	; 60001644 <ResetHandler2+0x214>
	SCB_SHCSR |= SCB_SHCSR_MEMFAULTENA | SCB_SHCSR_BUSFAULTENA | SCB_SHCSR_USGFAULTENA;
600014e2:	f443 23e0 	orr.w	r3, r3, #458752	; 0x70000
	IOMUXC_GPR_GPR26 = 0xFFFFFFFF;
600014e6:	4a4a      	ldr	r2, [pc, #296]	; (60001610 <ResetHandler2+0x1e0>)
	SCB_SHCSR |= SCB_SHCSR_MEMFAULTENA | SCB_SHCSR_BUSFAULTENA | SCB_SHCSR_USGFAULTENA;
600014e8:	f8c5 3d24 	str.w	r3, [r5, #3364]	; 0xd24
	CCM_CSCMR1 = (CCM_CSCMR1 & ~CCM_CSCMR1_PERCLK_PODF(0x3F)) | CCM_CSCMR1_PERCLK_CLK_SEL;
600014ec:	f8d8 301c 	ldr.w	r3, [r8, #28]
600014f0:	f023 037f 	bic.w	r3, r3, #127	; 0x7f
600014f4:	f043 0340 	orr.w	r3, r3, #64	; 0x40
600014f8:	f8c8 301c 	str.w	r3, [r8, #28]
	CCM_CSCDR1 = (CCM_CSCDR1 & ~CCM_CSCDR1_UART_CLK_PODF(0x3F)) | CCM_CSCDR1_UART_CLK_SEL;
600014fc:	f8d8 3024 	ldr.w	r3, [r8, #36]	; 0x24
60001500:	f023 037f 	bic.w	r3, r3, #127	; 0x7f
60001504:	f043 0340 	orr.w	r3, r3, #64	; 0x40
60001508:	f8c8 3024 	str.w	r3, [r8, #36]	; 0x24
	IOMUXC_GPR_GPR26 = 0xFFFFFFFF;
6000150c:	6691      	str	r1, [r2, #104]	; 0x68
	IOMUXC_GPR_GPR27 = 0xFFFFFFFF;
6000150e:	66d1      	str	r1, [r2, #108]	; 0x6c
	IOMUXC_GPR_GPR28 = 0xFFFFFFFF;
60001510:	6711      	str	r1, [r2, #112]	; 0x70
	IOMUXC_GPR_GPR29 = 0xFFFFFFFF;
60001512:	6751      	str	r1, [r2, #116]	; 0x74
	configure_cache();
60001514:	f000 f8de 	bl	600016d4 <configure_cache>
	_VectorsRam[14] = pendablesrvreq_isr;
60001518:	4b3e      	ldr	r3, [pc, #248]	; (60001614 <ResetHandler2+0x1e4>)
	systick_cycle_count = ARM_DWT_CYCCNT; // compiled 0, corrected w/1st systick
6000151a:	493f      	ldr	r1, [pc, #252]	; (60001618 <ResetHandler2+0x1e8>)
	_VectorsRam[14] = pendablesrvreq_isr;
6000151c:	63a3      	str	r3, [r4, #56]	; 0x38
	_VectorsRam[15] = systick_isr;
6000151e:	4b3f      	ldr	r3, [pc, #252]	; (6000161c <ResetHandler2+0x1ec>)
60001520:	63e3      	str	r3, [r4, #60]	; 0x3c
	SYST_RVR = (SYSTICK_EXT_FREQ / 1000) - 1;
60001522:	2363      	movs	r3, #99	; 0x63
60001524:	616b      	str	r3, [r5, #20]
	SYST_CSR = SYST_CSR_TICKINT | SYST_CSR_ENABLE;
60001526:	2303      	movs	r3, #3
	SYST_CVR = 0;
60001528:	61af      	str	r7, [r5, #24]
	SYST_CSR = SYST_CSR_TICKINT | SYST_CSR_ENABLE;
6000152a:	612b      	str	r3, [r5, #16]
	SCB_SHPR3 = 0x20200000;  // Systick, pendablesrvreq_isr = priority 32;
6000152c:	4b3c      	ldr	r3, [pc, #240]	; (60001620 <ResetHandler2+0x1f0>)
6000152e:	f8c5 3d20 	str.w	r3, [r5, #3360]	; 0xd20
	ARM_DEMCR |= ARM_DEMCR_TRCENA;
60001532:	f8d5 3dfc 	ldr.w	r3, [r5, #3580]	; 0xdfc
60001536:	f043 7380 	orr.w	r3, r3, #16777216	; 0x1000000
6000153a:	f8c5 3dfc 	str.w	r3, [r5, #3580]	; 0xdfc
	ARM_DWT_CTRL |= ARM_DWT_CTRL_CYCCNTENA; // turn on cycle counter
6000153e:	4b39      	ldr	r3, [pc, #228]	; (60001624 <ResetHandler2+0x1f4>)
60001540:	681a      	ldr	r2, [r3, #0]
60001542:	f042 0201 	orr.w	r2, r2, #1
60001546:	601a      	str	r2, [r3, #0]
	systick_cycle_count = ARM_DWT_CYCCNT; // compiled 0, corrected w/1st systick
60001548:	685b      	ldr	r3, [r3, #4]
6000154a:	600b      	str	r3, [r1, #0]
	usb_pll_start();	
6000154c:	f000 f94a 	bl	600017e4 <usb_pll_start>
	CCM_ANALOG_PFD_528_SET = (1 << 31) | (1 << 23) | (1 << 15) | (1 << 7);
60001550:	f8c6 9104 	str.w	r9, [r6, #260]	; 0x104
	set_arm_clock(F_CPU);
60001554:	4834      	ldr	r0, [pc, #208]	; (60001628 <ResetHandler2+0x1f8>)
	CCM_ANALOG_PFD_528 = 0x2018101B; // PFD0:352, PFD1:594, PFD2:396, PFD3:297 MHz 	
60001556:	f8c6 b100 	str.w	fp, [r6, #256]	; 0x100
	CCM_ANALOG_PFD_480_SET = (1 << 31) | (1 << 23) | (1 << 15) | (1 << 7);	
6000155a:	f8c6 90f4 	str.w	r9, [r6, #244]	; 0xf4
	CCM_ANALOG_PFD_480 = 0x13110D0C; // PFD0:720, PFD1:664, PFD2:508, PFD3:454 MHz
6000155e:	f8c6 a0f0 	str.w	sl, [r6, #240]	; 0xf0
	set_arm_clock(F_CPU);
60001562:	f000 fac1 	bl	60001ae8 <__set_arm_clock_veneer>
	CCM_CCGR1 |= CCM_CCGR1_PIT(CCM_CCGR_ON);
60001566:	f8d8 106c 	ldr.w	r1, [r8, #108]	; 0x6c
	PIT_MCR = 0;
6000156a:	4b30      	ldr	r3, [pc, #192]	; (6000162c <ResetHandler2+0x1fc>)
	if (!(SNVS_LPCR & SNVS_LPCR_SRTC_ENV)) {
6000156c:	4a30      	ldr	r2, [pc, #192]	; (60001630 <ResetHandler2+0x200>)
	CCM_CCGR1 |= CCM_CCGR1_PIT(CCM_CCGR_ON);
6000156e:	f441 5140 	orr.w	r1, r1, #12288	; 0x3000
60001572:	f8c8 106c 	str.w	r1, [r8, #108]	; 0x6c
	PIT_MCR = 0;
60001576:	601f      	str	r7, [r3, #0]
	PIT_TCTRL0 = 0;
60001578:	f8c3 7108 	str.w	r7, [r3, #264]	; 0x108
	PIT_TCTRL1 = 0;
6000157c:	f8c3 7118 	str.w	r7, [r3, #280]	; 0x118
	PIT_TCTRL2 = 0;
60001580:	f8c3 7128 	str.w	r7, [r3, #296]	; 0x128
	PIT_TCTRL3 = 0;
60001584:	f8c3 7138 	str.w	r7, [r3, #312]	; 0x138
	if (!(SNVS_LPCR & SNVS_LPCR_SRTC_ENV)) {
60001588:	6b93      	ldr	r3, [r2, #56]	; 0x38
6000158a:	07db      	lsls	r3, r3, #31
6000158c:	d408      	bmi.n	600015a0 <ResetHandler2+0x170>
		SNVS_LPSRTCMR = 1546300800u >> 17;
6000158e:	f642 6315 	movw	r3, #11797	; 0x2e15
		SNVS_LPSRTCLR = 1546300800u << 15;
60001592:	4928      	ldr	r1, [pc, #160]	; (60001634 <ResetHandler2+0x204>)
60001594:	6551      	str	r1, [r2, #84]	; 0x54
		SNVS_LPSRTCMR = 1546300800u >> 17;
60001596:	6513      	str	r3, [r2, #80]	; 0x50
		SNVS_LPCR |= SNVS_LPCR_SRTC_ENV;
60001598:	6b93      	ldr	r3, [r2, #56]	; 0x38
6000159a:	f043 0301 	orr.w	r3, r3, #1
6000159e:	6393      	str	r3, [r2, #56]	; 0x38
	SNVS_HPCR |= SNVS_HPCR_RTC_EN | SNVS_HPCR_HP_TS;
600015a0:	4a23      	ldr	r2, [pc, #140]	; (60001630 <ResetHandler2+0x200>)
600015a2:	4c25      	ldr	r4, [pc, #148]	; (60001638 <ResetHandler2+0x208>)
600015a4:	6893      	ldr	r3, [r2, #8]
600015a6:	f043 1301 	orr.w	r3, r3, #65537	; 0x10001
600015aa:	6093      	str	r3, [r2, #8]
	analog_init();
600015ac:	f000 f860 	bl	60001670 <analog_init>
	pwm_init();
600015b0:	f000 fa82 	bl	60001ab8 <__pwm_init_veneer>
	tempmon_init();
600015b4:	f000 f944 	bl	60001840 <tempmon_init>
	startup_middle_hook();
600015b8:	f000 f886 	bl	600016c8 <startup_default_middle_hook>
// Returns the number of milliseconds since your program started running.
// This 32 bit number will roll back to zero after about 49.7 days.  For a
// simpler way to build delays or timeouts, consider using elapsedMillis.
static inline uint32_t millis(void)
{
	return systick_millis_count;
600015bc:	6823      	ldr	r3, [r4, #0]
	while (millis() < TEENSY_INIT_USB_DELAY_BEFORE) ; // wait
600015be:	2b13      	cmp	r3, #19
600015c0:	d9fc      	bls.n	600015bc <ResetHandler2+0x18c>
	usb_init();
600015c2:	f000 f9d5 	bl	60001970 <usb_init>
600015c6:	6823      	ldr	r3, [r4, #0]
	while (millis() < TEENSY_INIT_USB_DELAY_AFTER + TEENSY_INIT_USB_DELAY_BEFORE) ; // wait
600015c8:	f5b3 7f96 	cmp.w	r3, #300	; 0x12c
600015cc:	d3fb      	bcc.n	600015c6 <ResetHandler2+0x196>
	startup_debug_reset();
600015ce:	f000 f87f 	bl	600016d0 <startup_debug_reset>
	startup_late_hook();
600015d2:	f000 f87b 	bl	600016cc <startup_default_late_hook>
	__libc_init_array();
600015d6:	f000 fa83 	bl	60001ae0 <____libc_init_array_veneer>
	main();
600015da:	f000 fa75 	bl	60001ac8 <__main_veneer>
	while (1) asm("WFI");
600015de:	bf30      	wfi
600015e0:	e7fd      	b.n	600015de <ResetHandler2+0x1ae>
600015e2:	bf00      	nop
600015e4:	400d8000 	.word	0x400d8000
600015e8:	00001bf0 	.word	0x00001bf0
600015ec:	60001bfc 	.word	0x60001bfc
600015f0:	00000000 	.word	0x00000000
600015f4:	20000ac0 	.word	0x20000ac0
600015f8:	600037f0 	.word	0x600037f0
600015fc:	20000000 	.word	0x20000000
60001600:	20000800 	.word	0x20000800
60001604:	000003c9 	.word	0x000003c9
60001608:	e000e400 	.word	0xe000e400
6000160c:	e000e4a0 	.word	0xe000e4a0
60001610:	400ac000 	.word	0x400ac000
60001614:	000014b1 	.word	0x000014b1
60001618:	20000d28 	.word	0x20000d28
6000161c:	000014b5 	.word	0x000014b5
60001620:	20200000 	.word	0x20200000
60001624:	e0001000 	.word	0xe0001000
60001628:	23c34600 	.word	0x23c34600
6000162c:	40084000 	.word	0x40084000
60001630:	400d4000 	.word	0x400d4000
60001634:	56c00000 	.word	0x56c00000
60001638:	20000d2c 	.word	0x20000d2c
6000163c:	2018101b 	.word	0x2018101b
60001640:	13110d0c 	.word	0x13110d0c
60001644:	400fc000 	.word	0x400fc000

60001648 <ResetHandler>:
	IOMUXC_GPR_GPR17 = (uint32_t)&_flexram_bank_config;
60001648:	4b05      	ldr	r3, [pc, #20]	; (60001660 <ResetHandler+0x18>)
	IOMUXC_GPR_GPR14 = 0x00AA0000;
6000164a:	f44f 012a 	mov.w	r1, #11141120	; 0xaa0000
	IOMUXC_GPR_GPR17 = (uint32_t)&_flexram_bank_config;
6000164e:	4a05      	ldr	r2, [pc, #20]	; (60001664 <ResetHandler+0x1c>)
	IOMUXC_GPR_GPR16 = 0x00200007;
60001650:	4805      	ldr	r0, [pc, #20]	; (60001668 <ResetHandler+0x20>)
	IOMUXC_GPR_GPR17 = (uint32_t)&_flexram_bank_config;
60001652:	645a      	str	r2, [r3, #68]	; 0x44
	IOMUXC_GPR_GPR16 = 0x00200007;
60001654:	6418      	str	r0, [r3, #64]	; 0x40
	__asm__ volatile("mov sp, %0" : : "r" ((uint32_t)&_estack) : "memory");
60001656:	4a05      	ldr	r2, [pc, #20]	; (6000166c <ResetHandler+0x24>)
	IOMUXC_GPR_GPR14 = 0x00AA0000;
60001658:	6399      	str	r1, [r3, #56]	; 0x38
	__asm__ volatile("mov sp, %0" : : "r" ((uint32_t)&_estack) : "memory");
6000165a:	4695      	mov	sp, r2
	ResetHandler2();
6000165c:	f7ff fee8 	bl	60001430 <ResetHandler2>
60001660:	400ac000 	.word	0x400ac000
60001664:	aaaaaaab 	.word	0xaaaaaaab
60001668:	00200007 	.word	0x00200007
6000166c:	20078000 	.word	0x20078000

60001670 <analog_init>:
{
	uint32_t mode, avg=0;

	printf("analogInit\n");

	CCM_CCGR1 |= CCM_CCGR1_ADC1(CCM_CCGR_ON);
60001670:	4b10      	ldr	r3, [pc, #64]	; (600016b4 <analog_init+0x44>)
		mode |= ADC_CFG_ADIV(0) | ADC_CFG_ADICLK(0); // use IPG
	}
#endif
	//ADC1
	ADC1_CFG = mode | ADC_CFG_ADHSC;
	ADC1_GC = avg | ADC_GC_CAL;		// begin cal
60001672:	20a0      	movs	r0, #160	; 0xa0
	ADC1_CFG = mode | ADC_CFG_ADHSC;
60001674:	4a10      	ldr	r2, [pc, #64]	; (600016b8 <analog_init+0x48>)
	CCM_CCGR1 |= CCM_CCGR1_ADC1(CCM_CCGR_ON);
60001676:	6ed9      	ldr	r1, [r3, #108]	; 0x6c
60001678:	f441 3140 	orr.w	r1, r1, #196608	; 0x30000
{
6000167c:	b410      	push	{r4}
	CCM_CCGR1 |= CCM_CCGR1_ADC1(CCM_CCGR_ON);
6000167e:	66d9      	str	r1, [r3, #108]	; 0x6c
	ADC1_CFG = mode | ADC_CFG_ADHSC;
60001680:	f240 6437 	movw	r4, #1591	; 0x637
	CCM_CCGR1 |= CCM_CCGR1_ADC2(CCM_CCGR_ON);
60001684:	6ed9      	ldr	r1, [r3, #108]	; 0x6c
60001686:	f441 7140 	orr.w	r1, r1, #768	; 0x300
6000168a:	66d9      	str	r1, [r3, #108]	; 0x6c
	ADC1_CFG = mode | ADC_CFG_ADHSC;
6000168c:	6454      	str	r4, [r2, #68]	; 0x44
	ADC1_GC = avg | ADC_GC_CAL;		// begin cal
6000168e:	6490      	str	r0, [r2, #72]	; 0x48
	calibrating = 1;
	while (ADC1_GC & ADC_GC_CAL) {
60001690:	6c93      	ldr	r3, [r2, #72]	; 0x48
60001692:	061b      	lsls	r3, r3, #24
60001694:	d4fc      	bmi.n	60001690 <analog_init+0x20>
		//yield();
	}
	calibrating = 0;
	//ADC2
	ADC2_CFG = mode | ADC_CFG_ADHSC;
60001696:	4a09      	ldr	r2, [pc, #36]	; (600016bc <analog_init+0x4c>)
60001698:	f240 6137 	movw	r1, #1591	; 0x637
	ADC2_GC = avg | ADC_GC_CAL;		// begin cal
6000169c:	23a0      	movs	r3, #160	; 0xa0
	ADC2_CFG = mode | ADC_CFG_ADHSC;
6000169e:	6451      	str	r1, [r2, #68]	; 0x44
	ADC2_GC = avg | ADC_GC_CAL;		// begin cal
600016a0:	6493      	str	r3, [r2, #72]	; 0x48
	calibrating = 1;
	while (ADC2_GC & ADC_GC_CAL) {
600016a2:	6c93      	ldr	r3, [r2, #72]	; 0x48
600016a4:	f013 0380 	ands.w	r3, r3, #128	; 0x80
600016a8:	d1fb      	bne.n	600016a2 <analog_init+0x32>
		//yield();
	}
	calibrating = 0;
600016aa:	4a05      	ldr	r2, [pc, #20]	; (600016c0 <analog_init+0x50>)
600016ac:	7013      	strb	r3, [r2, #0]
}
600016ae:	f85d 4b04 	ldr.w	r4, [sp], #4
600016b2:	4770      	bx	lr
600016b4:	400fc000 	.word	0x400fc000
600016b8:	400c4000 	.word	0x400c4000
600016bc:	400c8000 	.word	0x400c8000
600016c0:	20000d51 	.word	0x20000d51

600016c4 <startup_default_early_hook>:
FLASHMEM void startup_default_early_hook(void) {}
600016c4:	4770      	bx	lr
600016c6:	bf00      	nop

600016c8 <startup_default_middle_hook>:
600016c8:	4770      	bx	lr
600016ca:	bf00      	nop

600016cc <startup_default_late_hook>:
600016cc:	4770      	bx	lr
600016ce:	bf00      	nop

600016d0 <startup_debug_reset>:
FLASHMEM void startup_debug_reset(void) { __asm__ volatile("nop"); }
600016d0:	bf00      	nop
600016d2:	4770      	bx	lr

600016d4 <configure_cache>:
{
600016d4:	b410      	push	{r4}
	SCB_MPU_CTRL = 0; // turn off MPU
600016d6:	f04f 23e0 	mov.w	r3, #3758153728	; 0xe000e000
600016da:	2100      	movs	r1, #0
	SCB_MPU_RBAR = 0x00000000 | REGION(i++); //https://developer.arm.com/docs/146793866/10/why-does-the-cortex-m7-initiate-axim-read-accesses-to-memory-addresses-that-do-not-fall-under-a-defined-mpu-region
600016dc:	2410      	movs	r4, #16
	SCB_MPU_RASR = SCB_MPU_RASR_TEX(0) | NOACCESS | NOEXEC | SIZE_4G;
600016de:	4831      	ldr	r0, [pc, #196]	; (600017a4 <configure_cache+0xd0>)
	SCB_MPU_CTRL = 0; // turn off MPU
600016e0:	f8c3 1d94 	str.w	r1, [r3, #3476]	; 0xd94
	SCB_MPU_RBAR = 0x00000000 | REGION(i++); //https://developer.arm.com/docs/146793866/10/why-does-the-cortex-m7-initiate-axim-read-accesses-to-memory-addresses-that-do-not-fall-under-a-defined-mpu-region
600016e4:	f8c3 4d9c 	str.w	r4, [r3, #3484]	; 0xd9c
	SCB_MPU_RBAR = 0x00000000 | REGION(i++); // ITCM
600016e8:	2411      	movs	r4, #17
	SCB_MPU_RASR = SCB_MPU_RASR_TEX(0) | NOACCESS | NOEXEC | SIZE_4G;
600016ea:	f8c3 0da0 	str.w	r0, [r3, #3488]	; 0xda0
	SCB_MPU_RASR = MEM_NOCACHE | READONLY | SIZE_512K;
600016ee:	482e      	ldr	r0, [pc, #184]	; (600017a8 <configure_cache+0xd4>)
	SCB_MPU_RBAR = 0x00000000 | REGION(i++); // ITCM
600016f0:	f8c3 4d9c 	str.w	r4, [r3, #3484]	; 0xd9c
	SCB_MPU_RBAR = 0x00000000 | REGION(i++); // trap NULL pointer deref
600016f4:	2412      	movs	r4, #18
	SCB_MPU_RASR = MEM_NOCACHE | READONLY | SIZE_512K;
600016f6:	f8c3 0da0 	str.w	r0, [r3, #3488]	; 0xda0
	SCB_MPU_RASR =  DEV_NOCACHE | NOACCESS | SIZE_32B;
600016fa:	482c      	ldr	r0, [pc, #176]	; (600017ac <configure_cache+0xd8>)
	SCB_MPU_RBAR = 0x00000000 | REGION(i++); // trap NULL pointer deref
600016fc:	f8c3 4d9c 	str.w	r4, [r3, #3484]	; 0xd9c
	SCB_MPU_RBAR = ((uint32_t)&_ebss) | REGION(i++); // trap stack overflow
60001700:	4a2b      	ldr	r2, [pc, #172]	; (600017b0 <configure_cache+0xdc>)
	SCB_MPU_RASR =  DEV_NOCACHE | NOACCESS | SIZE_32B;
60001702:	f8c3 0da0 	str.w	r0, [r3, #3488]	; 0xda0
	SCB_MPU_RBAR = 0x00200000 | REGION(i++); // Boot ROM
60001706:	4c2b      	ldr	r4, [pc, #172]	; (600017b4 <configure_cache+0xe0>)
	SCB_MPU_RBAR = ((uint32_t)&_ebss) | REGION(i++); // trap stack overflow
60001708:	f042 0215 	orr.w	r2, r2, #21
	SCB_MPU_RASR = MEM_CACHE_WT | READONLY | SIZE_128K;
6000170c:	482a      	ldr	r0, [pc, #168]	; (600017b8 <configure_cache+0xe4>)
	SCB_MPU_RBAR = 0x00200000 | REGION(i++); // Boot ROM
6000170e:	f8c3 4d9c 	str.w	r4, [r3, #3484]	; 0xd9c
	SCB_MPU_RASR = MEM_CACHE_WT | READONLY | SIZE_128K;
60001712:	f8c3 0da0 	str.w	r0, [r3, #3488]	; 0xda0
	SCB_MPU_RBAR = 0x20000000 | REGION(i++); // DTCM
60001716:	4c29      	ldr	r4, [pc, #164]	; (600017bc <configure_cache+0xe8>)
	SCB_MPU_RASR = MEM_NOCACHE | READWRITE | NOEXEC | SIZE_512K;
60001718:	4829      	ldr	r0, [pc, #164]	; (600017c0 <configure_cache+0xec>)
	SCB_MPU_RBAR = 0x20000000 | REGION(i++); // DTCM
6000171a:	f8c3 4d9c 	str.w	r4, [r3, #3484]	; 0xd9c
	SCB_MPU_RASR = MEM_NOCACHE | READWRITE | NOEXEC | SIZE_512K;
6000171e:	f8c3 0da0 	str.w	r0, [r3, #3488]	; 0xda0
	SCB_MPU_RASR = SCB_MPU_RASR_TEX(0) | NOACCESS | NOEXEC | SIZE_32B;
60001722:	4c28      	ldr	r4, [pc, #160]	; (600017c4 <configure_cache+0xf0>)
	SCB_MPU_RBAR = ((uint32_t)&_ebss) | REGION(i++); // trap stack overflow
60001724:	f8c3 2d9c 	str.w	r2, [r3, #3484]	; 0xd9c
	SCB_MPU_RBAR = 0x20200000 | REGION(i++); // RAM (AXI bus)
60001728:	4827      	ldr	r0, [pc, #156]	; (600017c8 <configure_cache+0xf4>)
	SCB_MPU_RASR = MEM_CACHE_WBWA | READWRITE | NOEXEC | SIZE_1M;
6000172a:	4a28      	ldr	r2, [pc, #160]	; (600017cc <configure_cache+0xf8>)
	SCB_MPU_RASR = SCB_MPU_RASR_TEX(0) | NOACCESS | NOEXEC | SIZE_32B;
6000172c:	f8c3 4da0 	str.w	r4, [r3, #3488]	; 0xda0
	SCB_MPU_RBAR = 0x20200000 | REGION(i++); // RAM (AXI bus)
60001730:	f8c3 0d9c 	str.w	r0, [r3, #3484]	; 0xd9c
	SCB_MPU_RASR = MEM_CACHE_WBWA | READWRITE | NOEXEC | SIZE_1M;
60001734:	f8c3 2da0 	str.w	r2, [r3, #3488]	; 0xda0
	SCB_MPU_RASR = DEV_NOCACHE | READWRITE | NOEXEC | SIZE_64M;
60001738:	f502 22a0 	add.w	r2, r2, #327680	; 0x50000
	SCB_MPU_RBAR = 0x40000000 | REGION(i++); // Peripherals
6000173c:	4c24      	ldr	r4, [pc, #144]	; (600017d0 <configure_cache+0xfc>)
	SCB_MPU_RASR = DEV_NOCACHE | READWRITE | NOEXEC | SIZE_64M;
6000173e:	320c      	adds	r2, #12
	SCB_MPU_RBAR = 0x60000000 | REGION(i++); // QSPI Flash
60001740:	4824      	ldr	r0, [pc, #144]	; (600017d4 <configure_cache+0x100>)
	SCB_MPU_RBAR = 0x40000000 | REGION(i++); // Peripherals
60001742:	f8c3 4d9c 	str.w	r4, [r3, #3484]	; 0xd9c
	SCB_MPU_RASR = DEV_NOCACHE | READWRITE | NOEXEC | SIZE_64M;
60001746:	f8c3 2da0 	str.w	r2, [r3, #3488]	; 0xda0
	SCB_MPU_RASR = MEM_CACHE_WBWA | READONLY | SIZE_16M;
6000174a:	4a23      	ldr	r2, [pc, #140]	; (600017d8 <configure_cache+0x104>)
	SCB_MPU_RBAR = 0x60000000 | REGION(i++); // QSPI Flash
6000174c:	f8c3 0d9c 	str.w	r0, [r3, #3484]	; 0xd9c
	SCB_MPU_RBAR = 0x70000000 | REGION(i++); // FlexSPI2
60001750:	4c22      	ldr	r4, [pc, #136]	; (600017dc <configure_cache+0x108>)
	SCB_MPU_RASR = MEM_CACHE_WBWA | READONLY | SIZE_16M;
60001752:	f8c3 2da0 	str.w	r2, [r3, #3488]	; 0xda0
	SCB_MPU_RASR = MEM_CACHE_WBWA | READWRITE | NOEXEC | SIZE_16M;
60001756:	f102 6240 	add.w	r2, r2, #201326592	; 0xc000000
	SCB_MPU_RBAR = 0x70000000 | REGION(i++); // FlexSPI2
6000175a:	f8c3 4d9c 	str.w	r4, [r3, #3484]	; 0xd9c
	SCB_MPU_RBAR = 0x80000000 | REGION(i++); // SEMC: SDRAM, NAND, SRAM, etc
6000175e:	4820      	ldr	r0, [pc, #128]	; (600017e0 <configure_cache+0x10c>)
	SCB_MPU_RASR = MEM_CACHE_WBWA | READWRITE | NOEXEC | SIZE_16M;
60001760:	f8c3 2da0 	str.w	r2, [r3, #3488]	; 0xda0
	SCB_MPU_RASR = MEM_CACHE_WBWA | READWRITE | NOEXEC | SIZE_1G;
60001764:	320c      	adds	r2, #12
	SCB_MPU_RBAR = 0x80000000 | REGION(i++); // SEMC: SDRAM, NAND, SRAM, etc
60001766:	f8c3 0d9c 	str.w	r0, [r3, #3484]	; 0xd9c
	SCB_MPU_RASR = MEM_CACHE_WBWA | READWRITE | NOEXEC | SIZE_1G;
6000176a:	f8c3 2da0 	str.w	r2, [r3, #3488]	; 0xda0
	asm("nop"); // allow a few cycles for bus writes before enable MPU
6000176e:	bf00      	nop
	asm("nop");
60001770:	bf00      	nop
	asm("nop");
60001772:	bf00      	nop
	asm("nop");
60001774:	bf00      	nop
	asm("nop");
60001776:	bf00      	nop
	SCB_MPU_CTRL = SCB_MPU_CTRL_ENABLE;
60001778:	2201      	movs	r2, #1
6000177a:	f8c3 2d94 	str.w	r2, [r3, #3476]	; 0xd94
	asm("dsb");
6000177e:	f3bf 8f4f 	dsb	sy
	asm("isb");
60001782:	f3bf 8f6f 	isb	sy
	SCB_CACHE_ICIALLU = 0;
60001786:	f8c3 1f50 	str.w	r1, [r3, #3920]	; 0xf50
	asm("dsb");
6000178a:	f3bf 8f4f 	dsb	sy
	asm("isb");
6000178e:	f3bf 8f6f 	isb	sy
	SCB_CCR |= (SCB_CCR_IC | SCB_CCR_DC);
60001792:	f8d3 2d14 	ldr.w	r2, [r3, #3348]	; 0xd14
}
60001796:	f85d 4b04 	ldr.w	r4, [sp], #4
	SCB_CCR |= (SCB_CCR_IC | SCB_CCR_DC);
6000179a:	f442 3240 	orr.w	r2, r2, #196608	; 0x30000
6000179e:	f8c3 2d14 	str.w	r2, [r3, #3348]	; 0xd14
}
600017a2:	4770      	bx	lr
600017a4:	1000003f 	.word	0x1000003f
600017a8:	07080025 	.word	0x07080025
600017ac:	00100009 	.word	0x00100009
600017b0:	20000d80 	.word	0x20000d80
600017b4:	00200013 	.word	0x00200013
600017b8:	07020021 	.word	0x07020021
600017bc:	20000014 	.word	0x20000014
600017c0:	13080025 	.word	0x13080025
600017c4:	10000009 	.word	0x10000009
600017c8:	20200016 	.word	0x20200016
600017cc:	130b0027 	.word	0x130b0027
600017d0:	40000017 	.word	0x40000017
600017d4:	60000018 	.word	0x60000018
600017d8:	070b002f 	.word	0x070b002f
600017dc:	70000019 	.word	0x70000019
600017e0:	8000001a 	.word	0x8000001a

600017e4 <usb_pll_start>:
{
600017e4:	b4f0      	push	{r4, r5, r6, r7}
		uint32_t n = CCM_ANALOG_PLL_USB1; // pg 759
600017e6:	4a15      	ldr	r2, [pc, #84]	; (6000183c <usb_pll_start+0x58>)
			CCM_ANALOG_PLL_USB1_SET = CCM_ANALOG_PLL_USB1_EN_USB_CLKS;
600017e8:	2740      	movs	r7, #64	; 0x40
			CCM_ANALOG_PLL_USB1_CLR = CCM_ANALOG_PLL_USB1_BYPASS;
600017ea:	f44f 3180 	mov.w	r1, #65536	; 0x10000
			CCM_ANALOG_PLL_USB1_SET = CCM_ANALOG_PLL_USB1_POWER;
600017ee:	f44f 5680 	mov.w	r6, #4096	; 0x1000
			CCM_ANALOG_PLL_USB1_SET = CCM_ANALOG_PLL_USB1_ENABLE;
600017f2:	f44f 5500 	mov.w	r5, #8192	; 0x2000
			CCM_ANALOG_PLL_USB1_CLR = 0xC000;			// bypass 24 MHz
600017f6:	f44f 4440 	mov.w	r4, #49152	; 0xc000
			CCM_ANALOG_PLL_USB1_CLR = CCM_ANALOG_PLL_USB1_POWER |	// power down
600017fa:	f243 0042 	movw	r0, #12354	; 0x3042
		uint32_t n = CCM_ANALOG_PLL_USB1; // pg 759
600017fe:	6913      	ldr	r3, [r2, #16]
		if (n & CCM_ANALOG_PLL_USB1_DIV_SELECT) {
60001800:	f013 0f02 	tst.w	r3, #2
60001804:	d10e      	bne.n	60001824 <usb_pll_start+0x40>
		if (!(n & CCM_ANALOG_PLL_USB1_ENABLE)) {
60001806:	f413 5f00 	tst.w	r3, #8192	; 0x2000
6000180a:	d00f      	beq.n	6000182c <usb_pll_start+0x48>
		if (!(n & CCM_ANALOG_PLL_USB1_POWER)) {
6000180c:	f413 5f80 	tst.w	r3, #4096	; 0x1000
60001810:	d00e      	beq.n	60001830 <usb_pll_start+0x4c>
		if (!(n & CCM_ANALOG_PLL_USB1_LOCK)) {
60001812:	2b00      	cmp	r3, #0
60001814:	daf3      	bge.n	600017fe <usb_pll_start+0x1a>
		if (n & CCM_ANALOG_PLL_USB1_BYPASS) {
60001816:	f413 3f80 	tst.w	r3, #65536	; 0x10000
6000181a:	d10b      	bne.n	60001834 <usb_pll_start+0x50>
		if (!(n & CCM_ANALOG_PLL_USB1_EN_USB_CLKS)) {
6000181c:	065b      	lsls	r3, r3, #25
6000181e:	d50b      	bpl.n	60001838 <usb_pll_start+0x54>
}
60001820:	bcf0      	pop	{r4, r5, r6, r7}
60001822:	4770      	bx	lr
			CCM_ANALOG_PLL_USB1_CLR = 0xC000;			// bypass 24 MHz
60001824:	6194      	str	r4, [r2, #24]
			CCM_ANALOG_PLL_USB1_SET = CCM_ANALOG_PLL_USB1_BYPASS;	// bypass
60001826:	6151      	str	r1, [r2, #20]
			CCM_ANALOG_PLL_USB1_CLR = CCM_ANALOG_PLL_USB1_POWER |	// power down
60001828:	6190      	str	r0, [r2, #24]
			continue;
6000182a:	e7e8      	b.n	600017fe <usb_pll_start+0x1a>
			CCM_ANALOG_PLL_USB1_SET = CCM_ANALOG_PLL_USB1_ENABLE;
6000182c:	6155      	str	r5, [r2, #20]
			continue;
6000182e:	e7e6      	b.n	600017fe <usb_pll_start+0x1a>
			CCM_ANALOG_PLL_USB1_SET = CCM_ANALOG_PLL_USB1_POWER;
60001830:	6156      	str	r6, [r2, #20]
			continue;
60001832:	e7e4      	b.n	600017fe <usb_pll_start+0x1a>
			CCM_ANALOG_PLL_USB1_CLR = CCM_ANALOG_PLL_USB1_BYPASS;
60001834:	6191      	str	r1, [r2, #24]
			continue;
60001836:	e7e2      	b.n	600017fe <usb_pll_start+0x1a>
			CCM_ANALOG_PLL_USB1_SET = CCM_ANALOG_PLL_USB1_EN_USB_CLKS;
60001838:	6157      	str	r7, [r2, #20]
			continue;
6000183a:	e7e0      	b.n	600017fe <usb_pll_start+0x1a>
6000183c:	400d8000 	.word	0x400d8000

60001840 <tempmon_init>:
  uint32_t calibrationData;
  uint32_t roomCount;
  uint32_t tempCodeVal;
      
  //first power on the temperature sensor - no register change
  TEMPMON_TEMPSENSE0 &= ~0x1U;
60001840:	4a3f      	ldr	r2, [pc, #252]	; (60001940 <tempmon_init+0x100>)

  //set monitoring frequency - no register change
  TEMPMON_TEMPSENSE1 = (((uint32_t)(((uint32_t)(frequency)) << 0U)) & 0xFFFFU);
60001842:	2003      	movs	r0, #3
  
  //read calibration data - this works
  calibrationData = HW_OCOTP_ANA1;
60001844:	493f      	ldr	r1, [pc, #252]	; (60001944 <tempmon_init+0x104>)
    s_hotTemp = (uint32_t)(calibrationData & 0xFFU) >> 0x00U;
    s_hotCount = (uint32_t)(calibrationData & 0xFFF00U) >> 0X08U;
    roomCount = (uint32_t)(calibrationData & 0xFFF00000U) >> 0x14U;
    s_hot_ROOM = (float) (s_hotTemp) - 25.0f;
60001846:	eef3 5a09 	vmov.f32	s11, #57	; 0x41c80000  25.0
  TEMPMON_TEMPSENSE0 &= ~0x1U;
6000184a:	f8d2 3080 	ldr.w	r3, [r2, #128]	; 0x80
  
  //Start temp monitoring
  TEMPMON_TEMPSENSE0 |= 0x2U;   //starts temp monitoring

  //PANIC shutdown:
  NVIC_SET_PRIORITY(IRQ_TEMPERATURE_PANIC, 0);
6000184e:	f04f 0c00 	mov.w	ip, #0
  tempCodeVal = ((float)s_hotCount + ((float)s_hotTemp - highAlarmTemp) * s_roomC_hotC / s_hot_ROOM);
60001852:	ed9f 6a3d 	vldr	s12, [pc, #244]	; 60001948 <tempmon_init+0x108>
  TEMPMON_TEMPSENSE0 &= ~0x1U;
60001856:	f023 0301 	bic.w	r3, r3, #1
  tempCodeVal = ((float)s_hotCount + ((float)s_hotTemp - panicAlarmTemp) * s_roomC_hotC / s_hot_ROOM);
6000185a:	ed9f 5a3c 	vldr	s10, [pc, #240]	; 6000194c <tempmon_init+0x10c>
{
6000185e:	b430      	push	{r4, r5}
  TEMPMON_TEMPSENSE0 &= ~0x1U;
60001860:	f8c2 3080 	str.w	r3, [r2, #128]	; 0x80
  TEMPMON_TEMPSENSE1 = (((uint32_t)(((uint32_t)(frequency)) << 0U)) & 0xFFFFU);
60001864:	f8c2 0090 	str.w	r0, [r2, #144]	; 0x90
  calibrationData = HW_OCOTP_ANA1;
60001868:	f8d1 10e0 	ldr.w	r1, [r1, #224]	; 0xe0
    s_hotTemp = (uint32_t)(calibrationData & 0xFFU) >> 0x00U;
6000186c:	4d38      	ldr	r5, [pc, #224]	; (60001950 <tempmon_init+0x110>)
6000186e:	b2cb      	uxtb	r3, r1
    s_hotCount = (uint32_t)(calibrationData & 0xFFF00U) >> 0X08U;
60001870:	4c38      	ldr	r4, [pc, #224]	; (60001954 <tempmon_init+0x114>)
    s_hot_ROOM = (float) (s_hotTemp) - 25.0f;
60001872:	4839      	ldr	r0, [pc, #228]	; (60001958 <tempmon_init+0x118>)
    s_hotTemp = (uint32_t)(calibrationData & 0xFFU) >> 0x00U;
60001874:	602b      	str	r3, [r5, #0]
    s_hot_ROOM = (float) (s_hotTemp) - 25.0f;
60001876:	ee07 3a90 	vmov	s15, r3
    roomCount = (uint32_t)(calibrationData & 0xFFF00000U) >> 0x14U;
6000187a:	0d0b      	lsrs	r3, r1, #20
    s_hotCount = (uint32_t)(calibrationData & 0xFFF00U) >> 0X08U;
6000187c:	f3c1 210b 	ubfx	r1, r1, #8, #12
    s_hot_ROOM = (float) (s_hotTemp) - 25.0f;
60001880:	eef8 7ae7 	vcvt.f32.s32	s15, s15
    roomCount = (uint32_t)(calibrationData & 0xFFF00000U) >> 0x14U;
60001884:	ee06 3a90 	vmov	s13, r3
    s_roomC_hotC = (float) roomCount - (float) s_hotCount;
60001888:	ee07 1a10 	vmov	s14, r1
6000188c:	4b33      	ldr	r3, [pc, #204]	; (6000195c <tempmon_init+0x11c>)
6000188e:	eeb8 7ac7 	vcvt.f32.s32	s14, s14
    s_hotCount = (uint32_t)(calibrationData & 0xFFF00U) >> 0X08U;
60001892:	6021      	str	r1, [r4, #0]
    s_roomC_hotC = (float) roomCount - (float) s_hotCount;
60001894:	eef8 6ae6 	vcvt.f32.s32	s13, s13
    TEMPMON_TEMPSENSE2 |= (((uint32_t)(((uint32_t)(tempCodeVal)) << 16U)) & 0xFFF0000U);
60001898:	4931      	ldr	r1, [pc, #196]	; (60001960 <tempmon_init+0x120>)
  tempCodeVal = ((float)s_hotCount + ((float)s_hotTemp - highAlarmTemp) * s_roomC_hotC / s_hot_ROOM);
6000189a:	ee37 6ac6 	vsub.f32	s12, s15, s12
  tempCodeVal = ((float)s_hotCount + ((float)s_hotTemp - panicAlarmTemp) * s_roomC_hotC / s_hot_ROOM);
6000189e:	ee37 5ac5 	vsub.f32	s10, s15, s10
    s_roomC_hotC = (float) roomCount - (float) s_hotCount;
600018a2:	ee76 6ac7 	vsub.f32	s13, s13, s14
    s_hot_ROOM = (float) (s_hotTemp) - 25.0f;
600018a6:	ee77 7ae5 	vsub.f32	s15, s15, s11
  tempCodeVal = ((float)s_hotCount + ((float)s_hotTemp - highAlarmTemp) * s_roomC_hotC / s_hot_ROOM);
600018aa:	ee26 6a26 	vmul.f32	s12, s12, s13
    s_roomC_hotC = (float) roomCount - (float) s_hotCount;
600018ae:	edc3 6a00 	vstr	s13, [r3]
  tempCodeVal = ((float)s_hotCount + ((float)s_hotTemp - panicAlarmTemp) * s_roomC_hotC / s_hot_ROOM);
600018b2:	ee25 5a26 	vmul.f32	s10, s10, s13
    TEMPMON_TEMPSENSE0 |= (((uint32_t)(((uint32_t)(tempCodeVal)) << 20U)) & 0xFFF00000U);
600018b6:	f8d2 3080 	ldr.w	r3, [r2, #128]	; 0x80
  tempCodeVal = ((float)s_hotCount + ((float)s_hotTemp - lowAlarmTemp) * s_roomC_hotC / s_hot_ROOM);
600018ba:	ee67 4aa6 	vmul.f32	s9, s15, s13
    s_hot_ROOM = (float) (s_hotTemp) - 25.0f;
600018be:	edc0 7a00 	vstr	s15, [r0]
  tempCodeVal = ((float)s_hotCount + ((float)s_hotTemp - highAlarmTemp) * s_roomC_hotC / s_hot_ROOM);
600018c2:	eec6 5a27 	vdiv.f32	s11, s12, s15
  NVIC_SET_PRIORITY(IRQ_TEMPERATURE_PANIC, 0);
600018c6:	4827      	ldr	r0, [pc, #156]	; (60001964 <tempmon_init+0x124>)
  tempCodeVal = ((float)s_hotCount + ((float)s_hotTemp - panicAlarmTemp) * s_roomC_hotC / s_hot_ROOM);
600018c8:	ee85 6a27 	vdiv.f32	s12, s10, s15
  tempCodeVal = ((float)s_hotCount + ((float)s_hotTemp - lowAlarmTemp) * s_roomC_hotC / s_hot_ROOM);
600018cc:	eec4 6aa7 	vdiv.f32	s13, s9, s15
  tempCodeVal = ((float)s_hotCount + ((float)s_hotTemp - highAlarmTemp) * s_roomC_hotC / s_hot_ROOM);
600018d0:	ee75 5a87 	vadd.f32	s11, s11, s14
600018d4:	eefc 5ae5 	vcvt.u32.f32	s11, s11
  tempCodeVal = ((float)s_hotCount + ((float)s_hotTemp - panicAlarmTemp) * s_roomC_hotC / s_hot_ROOM);
600018d8:	ee36 6a07 	vadd.f32	s12, s12, s14
    TEMPMON_TEMPSENSE0 |= (((uint32_t)(((uint32_t)(tempCodeVal)) << 20U)) & 0xFFF00000U);
600018dc:	ee15 4a90 	vmov	r4, s11
  tempCodeVal = ((float)s_hotCount + ((float)s_hotTemp - panicAlarmTemp) * s_roomC_hotC / s_hot_ROOM);
600018e0:	eebc 6ac6 	vcvt.u32.f32	s12, s12
    TEMPMON_TEMPSENSE0 |= (((uint32_t)(((uint32_t)(tempCodeVal)) << 20U)) & 0xFFF00000U);
600018e4:	ea43 5304 	orr.w	r3, r3, r4, lsl #20
  tempCodeVal = ((float)s_hotCount + ((float)s_hotTemp - lowAlarmTemp) * s_roomC_hotC / s_hot_ROOM);
600018e8:	ee76 7a87 	vadd.f32	s15, s13, s14
    TEMPMON_TEMPSENSE0 |= (((uint32_t)(((uint32_t)(tempCodeVal)) << 20U)) & 0xFFF00000U);
600018ec:	f8c2 3080 	str.w	r3, [r2, #128]	; 0x80
    TEMPMON_TEMPSENSE2 |= (((uint32_t)(((uint32_t)(tempCodeVal)) << 16U)) & 0xFFF0000U);
600018f0:	ee16 3a10 	vmov	r3, s12
600018f4:	f8d2 4190 	ldr.w	r4, [r2, #400]	; 0x190
  tempCodeVal = ((float)s_hotCount + ((float)s_hotTemp - lowAlarmTemp) * s_roomC_hotC / s_hot_ROOM);
600018f8:	eefc 7ae7 	vcvt.u32.f32	s15, s15
    TEMPMON_TEMPSENSE2 |= (((uint32_t)(((uint32_t)(tempCodeVal)) << 16U)) & 0xFFF0000U);
600018fc:	ea01 4103 	and.w	r1, r1, r3, lsl #16
60001900:	4321      	orrs	r1, r4
  tempCodeVal = ((float)s_hotCount + ((float)s_hotTemp - lowAlarmTemp) * s_roomC_hotC / s_hot_ROOM);
60001902:	ee17 3a90 	vmov	r3, s15
    TEMPMON_TEMPSENSE2 |= (((uint32_t)(((uint32_t)(tempCodeVal)) << 16U)) & 0xFFF0000U);
60001906:	f8c2 1190 	str.w	r1, [r2, #400]	; 0x190
    TEMPMON_TEMPSENSE2 |= (((uint32_t)(((uint32_t)(tempCodeVal)) << 0U)) & 0xFFFU);
6000190a:	f3c3 030b 	ubfx	r3, r3, #0, #12
6000190e:	f8d2 1190 	ldr.w	r1, [r2, #400]	; 0x190
60001912:	430b      	orrs	r3, r1
static inline void attachInterruptVector(IRQ_NUMBER_t irq, void (*function)(void)) __attribute__((always_inline, unused));
static inline void attachInterruptVector(IRQ_NUMBER_t irq, void (*function)(void)) { _VectorsRam[irq + 16] = function; asm volatile("": : :"memory"); }
#else
extern void (* volatile _VectorsRam[NVIC_NUM_INTERRUPTS+16])(void);
static inline void attachInterruptVector(enum IRQ_NUMBER_t irq, void (*function)(void)) __attribute__((always_inline, unused));
static inline void attachInterruptVector(enum IRQ_NUMBER_t irq, void (*function)(void)) { _VectorsRam[irq + 16] = function; asm volatile("": : :"memory"); }
60001914:	4914      	ldr	r1, [pc, #80]	; (60001968 <tempmon_init+0x128>)
60001916:	f8c2 3190 	str.w	r3, [r2, #400]	; 0x190
  TEMPMON_TEMPSENSE0 |= 0x2U;   //starts temp monitoring
6000191a:	f8d2 3080 	ldr.w	r3, [r2, #128]	; 0x80
6000191e:	f043 0302 	orr.w	r3, r3, #2
60001922:	f8c2 3080 	str.w	r3, [r2, #128]	; 0x80
60001926:	4b11      	ldr	r3, [pc, #68]	; (6000196c <tempmon_init+0x12c>)
  NVIC_SET_PRIORITY(IRQ_TEMPERATURE_PANIC, 0);
60001928:	f880 c040 	strb.w	ip, [r0, #64]	; 0x40
6000192c:	f8c1 3140 	str.w	r3, [r1, #320]	; 0x140
  attachInterruptVector(IRQ_TEMPERATURE_PANIC, &Panic_Temp_isr);
  NVIC_ENABLE_IRQ(IRQ_TEMPERATURE_PANIC);
60001930:	f04f 23e0 	mov.w	r3, #3758153728	; 0xe000e000
60001934:	2201      	movs	r2, #1
}
60001936:	bc30      	pop	{r4, r5}
  NVIC_ENABLE_IRQ(IRQ_TEMPERATURE_PANIC);
60001938:	f8c3 2108 	str.w	r2, [r3, #264]	; 0x108
}
6000193c:	4770      	bx	lr
6000193e:	bf00      	nop
60001940:	400d8100 	.word	0x400d8100
60001944:	401f4400 	.word	0x401f4400
60001948:	42aa0000 	.word	0x42aa0000
6000194c:	42b40000 	.word	0x42b40000
60001950:	20000d18 	.word	0x20000d18
60001954:	20000d14 	.word	0x20000d14
60001958:	20000d1c 	.word	0x20000d1c
6000195c:	20000d20 	.word	0x20000d20
60001960:	0fff0000 	.word	0x0fff0000
60001964:	e000e400 	.word	0xe000e400
60001968:	20000800 	.word	0x20000800
6000196c:	00000555 	.word	0x00000555

60001970 <usb_init>:
FLASHMEM void usb_init(void)
{
	// TODO: only enable when VBUS detected
	// TODO: return to low power mode when VBUS removed
	// TODO: protect PMU access with MPU
	PMU_REG_3P0 = PMU_REG_3P0_OUTPUT_TRG(0x0F) | PMU_REG_3P0_BO_OFFSET(6)
60001970:	4b31      	ldr	r3, [pc, #196]	; (60001a38 <usb_init+0xc8>)
60001972:	f640 7261 	movw	r2, #3937	; 0xf61
{
60001976:	b510      	push	{r4, lr}
	PMU_REG_3P0 = PMU_REG_3P0_OUTPUT_TRG(0x0F) | PMU_REG_3P0_BO_OFFSET(6)
60001978:	f8c3 2120 	str.w	r2, [r3, #288]	; 0x120

	CCM_CCGR6 |= CCM_CCGR6_USBOH3(CCM_CCGR_ON); // turn on clocks to USB peripheral
	
	printf("BURSTSIZE=%08lX\n", USB1_BURSTSIZE);
	//USB1_BURSTSIZE = USB_BURSTSIZE_TXPBURST(4) | USB_BURSTSIZE_RXPBURST(4);
	USB1_BURSTSIZE = 0x0404;
6000197c:	f240 4404 	movw	r4, #1028	; 0x404
	usb_init_serialnumber();
60001980:	f000 f89e 	bl	60001ac0 <__usb_init_serialnumber_veneer>
	CCM_CCGR6 |= CCM_CCGR6_USBOH3(CCM_CCGR_ON); // turn on clocks to USB peripheral
60001984:	4a2d      	ldr	r2, [pc, #180]	; (60001a3c <usb_init+0xcc>)
	USB1_BURSTSIZE = 0x0404;
60001986:	492e      	ldr	r1, [pc, #184]	; (60001a40 <usb_init+0xd0>)
	CCM_CCGR6 |= CCM_CCGR6_USBOH3(CCM_CCGR_ON); // turn on clocks to USB peripheral
60001988:	f8d2 3080 	ldr.w	r3, [r2, #128]	; 0x80
	//printf("USB1_USBMODE=%08lX\n", USB1_USBMODE);

	// turn on PLL3, wait for 480 MHz lock?
	// turn on CCM clock gates?  CCGR6[CG0]
#if 1
	if ((USBPHY1_PWD & (USBPHY_PWD_RXPWDRX | USBPHY_PWD_RXPWDDIFF | USBPHY_PWD_RXPWD1PT1
6000198c:	482d      	ldr	r0, [pc, #180]	; (60001a44 <usb_init+0xd4>)
	CCM_CCGR6 |= CCM_CCGR6_USBOH3(CCM_CCGR_ON); // turn on clocks to USB peripheral
6000198e:	f043 0303 	orr.w	r3, r3, #3
60001992:	f8c2 3080 	str.w	r3, [r2, #128]	; 0x80
	if ((USBPHY1_PWD & (USBPHY_PWD_RXPWDRX | USBPHY_PWD_RXPWDDIFF | USBPHY_PWD_RXPWD1PT1
60001996:	4b2c      	ldr	r3, [pc, #176]	; (60001a48 <usb_init+0xd8>)
	USB1_BURSTSIZE = 0x0404;
60001998:	f8c1 4160 	str.w	r4, [r1, #352]	; 0x160
	if ((USBPHY1_PWD & (USBPHY_PWD_RXPWDRX | USBPHY_PWD_RXPWDDIFF | USBPHY_PWD_RXPWD1PT1
6000199c:	6802      	ldr	r2, [r0, #0]
6000199e:	421a      	tst	r2, r3
600019a0:	d103      	bne.n	600019aa <usb_init+0x3a>
	  | USBPHY_PWD_RXPWDENV | USBPHY_PWD_TXPWDV2I | USBPHY_PWD_TXPWDIBIAS
	  | USBPHY_PWD_TXPWDFS)) || (USB1_USBMODE & USB_USBMODE_CM_MASK)) {
600019a2:	f8d1 31a8 	ldr.w	r3, [r1, #424]	; 0x1a8
600019a6:	079a      	lsls	r2, r3, #30
600019a8:	d01b      	beq.n	600019e2 <usb_init+0x72>
		// USB controller is turned on from previous use
		// reset needed to turn it off & start from clean slate
		USBPHY1_CTRL_SET = USBPHY_CTRL_SFTRST; // USBPHY1_CTRL page 3292
		USB1_USBCMD |= USB_USBCMD_RST; // reset controller
600019aa:	4a25      	ldr	r2, [pc, #148]	; (60001a40 <usb_init+0xd0>)
		USBPHY1_CTRL_SET = USBPHY_CTRL_SFTRST; // USBPHY1_CTRL page 3292
600019ac:	f04f 4100 	mov.w	r1, #2147483648	; 0x80000000
600019b0:	4b24      	ldr	r3, [pc, #144]	; (60001a44 <usb_init+0xd4>)
600019b2:	6359      	str	r1, [r3, #52]	; 0x34
		USB1_USBCMD |= USB_USBCMD_RST; // reset controller
600019b4:	f8d2 3140 	ldr.w	r3, [r2, #320]	; 0x140
600019b8:	f043 0302 	orr.w	r3, r3, #2
600019bc:	f8c2 3140 	str.w	r3, [r2, #320]	; 0x140
		int count=0;
		while (USB1_USBCMD & USB_USBCMD_RST) count++;
600019c0:	f8d2 3140 	ldr.w	r3, [r2, #320]	; 0x140
600019c4:	079b      	lsls	r3, r3, #30
600019c6:	d4fb      	bmi.n	600019c0 <usb_init+0x50>
		NVIC_CLEAR_PENDING(IRQ_USB1);
600019c8:	f44f 3000 	mov.w	r0, #131072	; 0x20000
600019cc:	f04f 21e0 	mov.w	r1, #3758153728	; 0xe000e000
		USBPHY1_CTRL_CLR = USBPHY_CTRL_SFTRST; // reset PHY
600019d0:	4b1c      	ldr	r3, [pc, #112]	; (60001a44 <usb_init+0xd4>)
600019d2:	f04f 4200 	mov.w	r2, #2147483648	; 0x80000000
		NVIC_CLEAR_PENDING(IRQ_USB1);
600019d6:	f8c1 028c 	str.w	r0, [r1, #652]	; 0x28c
		//printf("USBPHY1_PWD=%08lX\n", USBPHY1_PWD);
		//printf("USBPHY1_TX=%08lX\n", USBPHY1_TX);
		//printf("USBPHY1_RX=%08lX\n", USBPHY1_RX);
		//printf("USBPHY1_CTRL=%08lX\n", USBPHY1_CTRL);
		//printf("USB1_USBMODE=%08lX\n", USB1_USBMODE);
		delay(25);
600019da:	2019      	movs	r0, #25
		USBPHY1_CTRL_CLR = USBPHY_CTRL_SFTRST; // reset PHY
600019dc:	639a      	str	r2, [r3, #56]	; 0x38
		delay(25);
600019de:	f000 f877 	bl	60001ad0 <__delay_veneer>
	// ENDPTFLUSH	pg 3247
	// ENDPTSTAT	pg 3247
	// ENDPTCOMPLETE   3248
	// ENDPTCTRL0	pg 3249

	USBPHY1_CTRL_CLR = USBPHY_CTRL_CLKGATE;
600019e2:	4a18      	ldr	r2, [pc, #96]	; (60001a44 <usb_init+0xd4>)
600019e4:	f04f 4080 	mov.w	r0, #1073741824	; 0x40000000
	USBPHY1_PWD = 0;
	//printf("USBPHY1_PWD=%08lX\n", USBPHY1_PWD);
	//printf("USBPHY1_CTRL=%08lX\n", USBPHY1_CTRL);

	USB1_USBMODE = USB_USBMODE_CM(2) | USB_USBMODE_SLOM;
600019e8:	4c15      	ldr	r4, [pc, #84]	; (60001a40 <usb_init+0xd0>)
	USBPHY1_PWD = 0;
600019ea:	2100      	movs	r1, #0
	USBPHY1_CTRL_CLR = USBPHY_CTRL_CLKGATE;
600019ec:	6390      	str	r0, [r2, #56]	; 0x38
	USB1_USBMODE = USB_USBMODE_CM(2) | USB_USBMODE_SLOM;
600019ee:	200a      	movs	r0, #10
	memset(endpoint_queue_head, 0, sizeof(endpoint_queue_head));
600019f0:	4b16      	ldr	r3, [pc, #88]	; (60001a4c <usb_init+0xdc>)
	USBPHY1_PWD = 0;
600019f2:	6011      	str	r1, [r2, #0]
	memset(endpoint_queue_head, 0, sizeof(endpoint_queue_head));
600019f4:	f44f 7220 	mov.w	r2, #640	; 0x280
	USB1_USBMODE = USB_USBMODE_CM(2) | USB_USBMODE_SLOM;
600019f8:	f8c4 01a8 	str.w	r0, [r4, #424]	; 0x1a8
	memset(endpoint_queue_head, 0, sizeof(endpoint_queue_head));
600019fc:	4618      	mov	r0, r3
600019fe:	f000 f86b 	bl	60001ad8 <__memset_veneer>
	endpoint_queue_head[0].config = (64 << 16) | (1 << 15);
	endpoint_queue_head[1].config = (64 << 16);
60001a02:	f44f 0280 	mov.w	r2, #4194304	; 0x400000
	memset(endpoint_queue_head, 0, sizeof(endpoint_queue_head));
60001a06:	4603      	mov	r3, r0
	endpoint_queue_head[0].config = (64 << 16) | (1 << 15);
60001a08:	f44f 0081 	mov.w	r0, #4227072	; 0x408000
	USB1_ENDPOINTLISTADDR = (uint32_t)&endpoint_queue_head;
	//  Recommended: enable all device interrupts including: USBINT, USBERRINT,
	// Port Change Detect, USB Reset Received, DCSuspend.
	USB1_USBINTR = USB_USBINTR_UE | USB_USBINTR_UEE | /* USB_USBINTR_PCE | */
60001a0c:	f240 1143 	movw	r1, #323	; 0x143
	endpoint_queue_head[0].config = (64 << 16) | (1 << 15);
60001a10:	6018      	str	r0, [r3, #0]
	USB1_ENDPOINTLISTADDR = (uint32_t)&endpoint_queue_head;
60001a12:	f8c4 3158 	str.w	r3, [r4, #344]	; 0x158
	endpoint_queue_head[1].config = (64 << 16);
60001a16:	641a      	str	r2, [r3, #64]	; 0x40
60001a18:	4b0d      	ldr	r3, [pc, #52]	; (60001a50 <usb_init+0xe0>)
60001a1a:	4a0e      	ldr	r2, [pc, #56]	; (60001a54 <usb_init+0xe4>)
	USB1_USBINTR = USB_USBINTR_UE | USB_USBINTR_UEE | /* USB_USBINTR_PCE | */
60001a1c:	f8c4 1148 	str.w	r1, [r4, #328]	; 0x148
60001a20:	f8c3 2204 	str.w	r2, [r3, #516]	; 0x204
		USB_USBINTR_URE | USB_USBINTR_SLE;
	//_VectorsRam[IRQ_USB1+16] = &usb_isr;
	attachInterruptVector(IRQ_USB1, &usb_isr);
	NVIC_ENABLE_IRQ(IRQ_USB1);
60001a24:	f04f 22e0 	mov.w	r2, #3758153728	; 0xe000e000
60001a28:	f44f 3100 	mov.w	r1, #131072	; 0x20000
	//printf("USB1_ENDPTCTRL0=%08lX\n", USB1_ENDPTCTRL0);
	//printf("USB1_ENDPTCTRL1=%08lX\n", USB1_ENDPTCTRL1);
	//printf("USB1_ENDPTCTRL2=%08lX\n", USB1_ENDPTCTRL2);
	//printf("USB1_ENDPTCTRL3=%08lX\n", USB1_ENDPTCTRL3);
	USB1_USBCMD = USB_USBCMD_RS;
60001a2c:	2301      	movs	r3, #1
	NVIC_ENABLE_IRQ(IRQ_USB1);
60001a2e:	f8c2 110c 	str.w	r1, [r2, #268]	; 0x10c
	USB1_USBCMD = USB_USBCMD_RS;
60001a32:	f8c4 3140 	str.w	r3, [r4, #320]	; 0x140
	//transfer_log_head = 0;
	//transfer_log_count = 0;
	//USB1_PORTSC1 |= USB_PORTSC1_PFSC; // force 12 Mbit/sec
}
60001a36:	bd10      	pop	{r4, pc}
60001a38:	400d8000 	.word	0x400d8000
60001a3c:	400fc000 	.word	0x400fc000
60001a40:	402e0000 	.word	0x402e0000
60001a44:	400d9000 	.word	0x400d9000
60001a48:	001e1c00 	.word	0x001e1c00
60001a4c:	20000000 	.word	0x20000000
60001a50:	20000800 	.word	0x20000800
60001a54:	0000073d 	.word	0x0000073d

60001a58 <_reboot_Teensyduino_>:


FLASHMEM __attribute__((noinline)) void _reboot_Teensyduino_(void)
{
60001a58:	b508      	push	{r3, lr}
	if (!(HW_OCOTP_CFG5 & 0x02)) {
60001a5a:	4b0e      	ldr	r3, [pc, #56]	; (60001a94 <_reboot_Teensyduino_+0x3c>)
60001a5c:	6e1b      	ldr	r3, [r3, #96]	; 0x60
60001a5e:	079b      	lsls	r3, r3, #30
60001a60:	d400      	bmi.n	60001a64 <_reboot_Teensyduino_+0xc>
		asm("bkpt #251"); // run bootloader
60001a62:	befb      	bkpt	0x00fb
	} else {
		__disable_irq(); // secure mode NXP ROM reboot
60001a64:	b672      	cpsid	i
		USB1_USBCMD = 0;
60001a66:	4b0c      	ldr	r3, [pc, #48]	; (60001a98 <_reboot_Teensyduino_+0x40>)
60001a68:	2000      	movs	r0, #0
		IOMUXC_GPR_GPR16 = 0x00200003;
60001a6a:	4a0c      	ldr	r2, [pc, #48]	; (60001a9c <_reboot_Teensyduino_+0x44>)
		USB1_USBCMD = 0;
60001a6c:	f8c3 0140 	str.w	r0, [r3, #320]	; 0x140
		// TODO: wipe all RAM for security
		__asm__ volatile("mov sp, %0" : : "r" (0x20201000) : );
60001a70:	f103 4360 	add.w	r3, r3, #3758096384	; 0xe0000000
		IOMUXC_GPR_GPR16 = 0x00200003;
60001a74:	490a      	ldr	r1, [pc, #40]	; (60001aa0 <_reboot_Teensyduino_+0x48>)
		__asm__ volatile("mov sp, %0" : : "r" (0x20201000) : );
60001a76:	f5a3 235f 	sub.w	r3, r3, #913408	; 0xdf000
		IOMUXC_GPR_GPR16 = 0x00200003;
60001a7a:	6411      	str	r1, [r2, #64]	; 0x40
		__asm__ volatile("mov sp, %0" : : "r" (0x20201000) : );
60001a7c:	469d      	mov	sp, r3
		__asm__ volatile("dsb":::"memory");
60001a7e:	f3bf 8f4f 	dsb	sy
		volatile uint32_t * const p = (uint32_t *)0x20208000;
		*p = 0xEB120000;
		((void (*)(volatile void *))(*(uint32_t *)(*(uint32_t *)0x0020001C + 8)))(p);
60001a82:	f44f 1300 	mov.w	r3, #2097152	; 0x200000
		*p = 0xEB120000;
60001a86:	4807      	ldr	r0, [pc, #28]	; (60001aa4 <_reboot_Teensyduino_+0x4c>)
60001a88:	4a07      	ldr	r2, [pc, #28]	; (60001aa8 <_reboot_Teensyduino_+0x50>)
		((void (*)(volatile void *))(*(uint32_t *)(*(uint32_t *)0x0020001C + 8)))(p);
60001a8a:	69db      	ldr	r3, [r3, #28]
		*p = 0xEB120000;
60001a8c:	6002      	str	r2, [r0, #0]
		((void (*)(volatile void *))(*(uint32_t *)(*(uint32_t *)0x0020001C + 8)))(p);
60001a8e:	689b      	ldr	r3, [r3, #8]
60001a90:	4798      	blx	r3
	}
	__builtin_unreachable();
60001a92:	bf00      	nop
60001a94:	401f4400 	.word	0x401f4400
60001a98:	402e0000 	.word	0x402e0000
60001a9c:	400ac000 	.word	0x400ac000
60001aa0:	00200003 	.word	0x00200003
60001aa4:	20208000 	.word	0x20208000
60001aa8:	eb120000 	.word	0xeb120000

60001aac <_init>:
60001aac:	b5f8      	push	{r3, r4, r5, r6, r7, lr}
60001aae:	bf00      	nop
60001ab0:	bcf8      	pop	{r3, r4, r5, r6, r7}
60001ab2:	bc08      	pop	{r3}
60001ab4:	469e      	mov	lr, r3
60001ab6:	4770      	bx	lr

60001ab8 <__pwm_init_veneer>:
60001ab8:	f85f f000 	ldr.w	pc, [pc]	; 60001abc <__pwm_init_veneer+0x4>
60001abc:	000019d9 	.word	0x000019d9

60001ac0 <__usb_init_serialnumber_veneer>:
60001ac0:	f85f f000 	ldr.w	pc, [pc]	; 60001ac4 <__usb_init_serialnumber_veneer+0x4>
60001ac4:	00000ead 	.word	0x00000ead

60001ac8 <__main_veneer>:
60001ac8:	f85f f000 	ldr.w	pc, [pc]	; 60001acc <__main_veneer+0x4>
60001acc:	000003b9 	.word	0x000003b9

60001ad0 <__delay_veneer>:
60001ad0:	f85f f000 	ldr.w	pc, [pc]	; 60001ad4 <__delay_veneer+0x4>
60001ad4:	00000311 	.word	0x00000311

60001ad8 <__memset_veneer>:
60001ad8:	f85f f000 	ldr.w	pc, [pc]	; 60001adc <__memset_veneer+0x4>
60001adc:	00001af1 	.word	0x00001af1

60001ae0 <____libc_init_array_veneer>:
60001ae0:	f85f f000 	ldr.w	pc, [pc]	; 60001ae4 <____libc_init_array_veneer+0x4>
60001ae4:	00001b95 	.word	0x00001b95

60001ae8 <__set_arm_clock_veneer>:
60001ae8:	f85f f000 	ldr.w	pc, [pc]	; 60001aec <__set_arm_clock_veneer+0x4>
60001aec:	000014d5 	.word	0x000014d5

60001af0 <__frame_dummy_init_array_entry>:
60001af0:	00000045                                E...

Disassembly of section .text.itcm:

00000000 <_stext>:
	...

00000020 <register_tm_clones>:
{
        char *prev = __brkval;
        if (incr != 0) {
                if (prev + incr > (char *)&_heap_end) {
                        errno = ENOMEM;
                        return (void *)-1;
      20:	4805      	ldr	r0, [pc, #20]	; (38 <_teensy_model_identifier+0x14>)
      22:	4b06      	ldr	r3, [pc, #24]	; (3c <_teensy_model_identifier+0x18>)
                        errno = ENOMEM;
      24:	1a1b      	subs	r3, r3, r0
                }
                __brkval = prev + incr;
        }
        return prev;
}
      26:	0fd9      	lsrs	r1, r3, #31
      28:	eb01 01a3 	add.w	r1, r1, r3, asr #2
      2c:	1049      	asrs	r1, r1, #1
      2e:	d002      	beq.n	36 <_teensy_model_identifier+0x12>
      30:	4b03      	ldr	r3, [pc, #12]	; (40 <_teensy_model_identifier+0x1c>)
      32:	b103      	cbz	r3, 36 <_teensy_model_identifier+0x12>
	// set the SRTC
	SNVS_LPSRTCLR = t << 15;
	SNVS_LPSRTCMR = t >> 17;
	// start the SRTC
	SNVS_LPCR |= SNVS_LPCR_SRTC_ENV;
	while (!(SNVS_LPCR & SNVS_LPCR_SRTC_ENV)); // wait
      34:	4718      	bx	r3
      36:	4770      	bx	lr
	// start the RTC and sync it to the SRTC
	SNVS_HPCR |= SNVS_HPCR_RTC_EN | SNVS_HPCR_HP_TS;
      38:	20000ac0 	.word	0x20000ac0
      3c:	20000ac0 	.word	0x20000ac0
}
      40:	00000000 	.word	0x00000000

00000044 <frame_dummy>:
      44:	b508      	push	{r3, lr}
      46:	4b05      	ldr	r3, [pc, #20]	; (5c <frame_dummy+0x18>)
	uint32_t ccdelta = cyccnt - scc;
	uint32_t frac = ((uint64_t)ccdelta * scale_cpu_cycles_to_microseconds) >> 32;
	if (frac > 1000) frac = 1000;
	uint32_t usec = 1000*smc + frac;
	return usec;
}
      48:	b11b      	cbz	r3, 52 <frame_dummy+0xe>
      4a:	4905      	ldr	r1, [pc, #20]	; (60 <frame_dummy+0x1c>)
      4c:	4805      	ldr	r0, [pc, #20]	; (64 <frame_dummy+0x20>)
      4e:	f3af 8000 	nop.w
      52:	e8bd 4008 	ldmia.w	sp!, {r3, lr}
{
	if (mult < 1 || mult > 3) return;
	uint32_t config = (packet_size << 16) | (mult << 30);
	if (ep < 2 || ep > NUM_ENDPOINTS) return;
	usb_endpoint_config(endpoint_queue_head + ep * 2 + 1, config, cb);
	if (cb) endpointN_notify_mask |= (1 << (ep + 16));
      56:	f7ff bfe3 	b.w	20 <register_tm_clones>
      5a:	bf00      	nop
      5c:	00000000 	.word	0x00000000
}
      60:	20000cc4 	.word	0x20000cc4
      64:	60005000 	.word	0x60005000

00000068 <setup>:
      68:	e92d 43f8 	stmdb	sp!, {r3, r4, r5, r6, r7, r8, r9, lr}
	// is always initialized early during startup.  The baud rate setting
	// is not used.  Communication occurs at USB native speed.  For
	// compatibility with Arduino code, Serial.begin waits up to 2 seconds
	// for your PC to open the virtual serial port.
        void begin(long baud_unused __attribute__((unused))) {
		uint32_t millis_begin = systick_millis_count;
      6c:	4d1b      	ldr	r5, [pc, #108]	; (dc <setup+0x74>)
				// Wait up to 2 seconds for Arduino Serial Monitor
				if (elapsed > 2000) break;
			} else {
				// But wait only 3/4 second if there is no sign the
				// USB host has begun the USB enumeration process.
				if (elapsed > 750) break;
      6e:	f240 28ee 	movw	r8, #750	; 0x2ee
      72:	4c1b      	ldr	r4, [pc, #108]	; (e0 <setup+0x78>)
      74:	4f1b      	ldr	r7, [pc, #108]	; (e4 <setup+0x7c>)
      76:	f8df 9070 	ldr.w	r9, [pc, #112]	; e8 <setup+0x80>
		uint32_t millis_begin = systick_millis_count;
      7a:	682e      	ldr	r6, [r5, #0]
        uint8_t rts(void) { return (usb_cdc_line_rtsdtr & USB_SERIAL_RTS) ? 1 : 0; }
	// Testing Serial as a boolean indicates whether USB is active and a program
	// running on your PC has raised the DTR signal, which typically means it has
	// opened the port and is ready to communicate.
        operator bool() {
		yield();
      7c:	f001 f98a 	bl	1394 <yield>
		return usb_configuration && (usb_cdc_line_rtsdtr & USB_SERIAL_DTR) &&
      80:	7823      	ldrb	r3, [r4, #0]
      82:	b1f3      	cbz	r3, c2 <setup+0x5a>
      84:	783b      	ldrb	r3, [r7, #0]
      86:	07da      	lsls	r2, r3, #31
      88:	d51b      	bpl.n	c2 <setup+0x5a>
		((uint32_t)(systick_millis_count - usb_cdc_line_rtsdtr_millis) >= 15);
      8a:	682b      	ldr	r3, [r5, #0]
      8c:	f8d9 2000 	ldr.w	r2, [r9]
      90:	1a9b      	subs	r3, r3, r2
		return usb_configuration && (usb_cdc_line_rtsdtr & USB_SERIAL_DTR) &&
      92:	2b0e      	cmp	r3, #14
      94:	d915      	bls.n	c2 <setup+0x5a>
static inline void analogReadResolution(unsigned int bits) { analogReadRes(bits); }
      96:	200c      	movs	r0, #12
      98:	f000 f8c6 	bl	228 <analogReadRes>
constexpr uint8_t OFF_SYNC     = OFF_LINEAR + sizeof(int16_t);

void setup() {
  Serial.begin(6000000);
  analogReadResolution(12);
  analogReadAveraging(0);
      9c:	2000      	movs	r0, #0
      9e:	f000 f8f3 	bl	288 <analogReadAveraging>
		yield();
      a2:	f001 f977 	bl	1394 <yield>
		return usb_configuration && (usb_cdc_line_rtsdtr & USB_SERIAL_DTR) &&
      a6:	7823      	ldrb	r3, [r4, #0]
      a8:	2b00      	cmp	r3, #0
      aa:	d0fa      	beq.n	a2 <setup+0x3a>
      ac:	783b      	ldrb	r3, [r7, #0]
      ae:	07db      	lsls	r3, r3, #31
      b0:	d5f7      	bpl.n	a2 <setup+0x3a>
		((uint32_t)(systick_millis_count - usb_cdc_line_rtsdtr_millis) >= 15);
      b2:	682b      	ldr	r3, [r5, #0]
      b4:	f8d9 2000 	ldr.w	r2, [r9]
      b8:	1a9b      	subs	r3, r3, r2
		return usb_configuration && (usb_cdc_line_rtsdtr & USB_SERIAL_DTR) &&
      ba:	2b0e      	cmp	r3, #14
      bc:	d9f1      	bls.n	a2 <setup+0x3a>
  while (!Serial); 
}
      be:	e8bd 83f8 	ldmia.w	sp!, {r3, r4, r5, r6, r7, r8, r9, pc}
			uint32_t elapsed = systick_millis_count - millis_begin;
      c2:	682b      	ldr	r3, [r5, #0]
			if (usb_configuration) {
      c4:	7822      	ldrb	r2, [r4, #0]
			uint32_t elapsed = systick_millis_count - millis_begin;
      c6:	1b9b      	subs	r3, r3, r6
			if (usb_configuration) {
      c8:	b12a      	cbz	r2, d6 <setup+0x6e>
				if (elapsed > 2000) break;
      ca:	f5b3 6ffa 	cmp.w	r3, #2000	; 0x7d0
      ce:	d8e2      	bhi.n	96 <setup+0x2e>
			yield();
      d0:	f001 f960 	bl	1394 <yield>
      d4:	e7d2      	b.n	7c <setup+0x14>
				if (elapsed > 750) break;
      d6:	4543      	cmp	r3, r8
      d8:	d9fa      	bls.n	d0 <setup+0x68>
      da:	e7dc      	b.n	96 <setup+0x2e>
      dc:	20000d2c 	.word	0x20000d2c
      e0:	20000d59 	.word	0x20000d59
      e4:	20000d58 	.word	0x20000d58
      e8:	20000d3c 	.word	0x20000d3c

000000ec <loop>:

void loop() {
      ec:	b530      	push	{r4, r5, lr}
  uint16_t rawDrill  = analogRead(DRILL_PIN);
      ee:	2014      	movs	r0, #20
void loop() {
      f0:	b083      	sub	sp, #12
  uint16_t rawDrill  = analogRead(DRILL_PIN);
      f2:	f000 f841 	bl	178 <analogRead>
      f6:	4605      	mov	r5, r0
  uint16_t rawPower  = analogRead(POWER_PIN);
      f8:	2015      	movs	r0, #21
      fa:	f000 f83d 	bl	178 <analogRead>
      fe:	4604      	mov	r4, r0
  uint16_t rawLinear = analogRead(LINEAR_PIN);
     100:	2016      	movs	r0, #22
     102:	f000 f839 	bl	178 <analogRead>

  int16_t sDrill  = int16_t(rawDrill  * MULT_DRILL);
     106:	ed9f 6a1a 	vldr	s12, [pc, #104]	; 170 <loop+0x84>
     10a:	b2ab      	uxth	r3, r5
  int16_t sPower  = int16_t(rawPower  * MULT_POWER);
  int16_t sLinear = int16_t(rawLinear * MULT_LINEAR);
     10c:	eddf 5a19 	vldr	s11, [pc, #100]	; 174 <loop+0x88>
        virtual size_t write(const uint8_t *buffer, size_t size) { return usb_serial_write(buffer, size); }
     110:	2107      	movs	r1, #7
  int16_t sDrill  = int16_t(rawDrill  * MULT_DRILL);
     112:	ee07 3a10 	vmov	s14, r3
  int16_t sPower  = int16_t(rawPower  * MULT_POWER);
     116:	b2a3      	uxth	r3, r4
  int16_t sDrill  = int16_t(rawDrill  * MULT_DRILL);
     118:	eeb8 7ac7 	vcvt.f32.s32	s14, s14
  int16_t sPower  = int16_t(rawPower  * MULT_POWER);
     11c:	ee07 3a90 	vmov	s15, r3
  int16_t sLinear = int16_t(rawLinear * MULT_LINEAR);
     120:	b283      	uxth	r3, r0
     122:	4668      	mov	r0, sp
  int16_t sPower  = int16_t(rawPower  * MULT_POWER);
     124:	eef8 7ae7 	vcvt.f32.s32	s15, s15
  int16_t sLinear = int16_t(rawLinear * MULT_LINEAR);
     128:	ee06 3a90 	vmov	s13, r3
  int16_t sDrill  = int16_t(rawDrill  * MULT_DRILL);
     12c:	ee27 7a06 	vmul.f32	s14, s14, s12

  uint8_t buf[PACKET_SIZE];
  memcpy(buf + OFF_DRILL,  &sDrill,  sizeof(sDrill));
  memcpy(buf + OFF_POWER,  &sPower,  sizeof(sPower));
  memcpy(buf + OFF_LINEAR, &sLinear, sizeof(sLinear));
  buf[OFF_SYNC] = SYNC_BYTE;
     130:	230a      	movs	r3, #10
  int16_t sLinear = int16_t(rawLinear * MULT_LINEAR);
     132:	eef8 6ae6 	vcvt.f32.s32	s13, s13
  int16_t sPower  = int16_t(rawPower  * MULT_POWER);
     136:	ee67 7a86 	vmul.f32	s15, s15, s12
  buf[OFF_SYNC] = SYNC_BYTE;
     13a:	f88d 3006 	strb.w	r3, [sp, #6]
  int16_t sDrill  = int16_t(rawDrill  * MULT_DRILL);
     13e:	eebd 7ac7 	vcvt.s32.f32	s14, s14
  int16_t sLinear = int16_t(rawLinear * MULT_LINEAR);
     142:	ee66 6aa5 	vmul.f32	s13, s13, s11
  int16_t sPower  = int16_t(rawPower  * MULT_POWER);
     146:	eefd 7ae7 	vcvt.s32.f32	s15, s15
  int16_t sDrill  = int16_t(rawDrill  * MULT_DRILL);
     14a:	ee17 3a10 	vmov	r3, s14
  int16_t sLinear = int16_t(rawLinear * MULT_LINEAR);
     14e:	eefd 6ae6 	vcvt.s32.f32	s13, s13
  int16_t sDrill  = int16_t(rawDrill  * MULT_DRILL);
     152:	f8ad 3000 	strh.w	r3, [sp]
  int16_t sPower  = int16_t(rawPower  * MULT_POWER);
     156:	ee17 3a90 	vmov	r3, s15
     15a:	f8ad 3002 	strh.w	r3, [sp, #2]
  int16_t sLinear = int16_t(rawLinear * MULT_LINEAR);
     15e:	ee16 3a90 	vmov	r3, s13
     162:	f8ad 3004 	strh.w	r3, [sp, #4]
     166:	f001 f909 	bl	137c <usb_serial_write>
  Serial.write(buf, PACKET_SIZE);

}
     16a:	b003      	add	sp, #12
     16c:	bd30      	pop	{r4, r5, pc}
     16e:	bf00      	nop
     170:	3f4e4ce4 	.word	0x3f4e4ce4
     174:	3edc0dc1 	.word	0x3edc0dc1

00000178 <analogRead>:
	if (pin > sizeof(pin_to_channel)) return 0;
     178:	281c      	cmp	r0, #28
     17a:	d849      	bhi.n	210 <analogRead+0x98>
{
     17c:	b5f8      	push	{r3, r4, r5, r6, r7, lr}
	if (calibrating) wait_for_cal();
     17e:	4f25      	ldr	r7, [pc, #148]	; (214 <analogRead+0x9c>)
     180:	4604      	mov	r4, r0
     182:	783b      	ldrb	r3, [r7, #0]
     184:	b9e3      	cbnz	r3, 1c0 <analogRead+0x48>
	uint8_t ch = pin_to_channel[pin];
     186:	4b24      	ldr	r3, [pc, #144]	; (218 <analogRead+0xa0>)
     188:	5d1b      	ldrb	r3, [r3, r4]
	if (ch == 255) return 0;
     18a:	2bff      	cmp	r3, #255	; 0xff
     18c:	d029      	beq.n	1e2 <analogRead+0x6a>
	volatile uint32_t *pad = portControlRegister(pin);
     18e:	4a23      	ldr	r2, [pc, #140]	; (21c <analogRead+0xa4>)
     190:	eb02 1204 	add.w	r2, r2, r4, lsl #4
     194:	6891      	ldr	r1, [r2, #8]
	uint32_t padval = *pad;
     196:	680a      	ldr	r2, [r1, #0]
	if ((padval & (IOMUXC_PAD_PUE | IOMUXC_PAD_PKE)) == IOMUXC_PAD_PKE) {
     198:	f402 5040 	and.w	r0, r2, #12288	; 0x3000
     19c:	f5b0 5f80 	cmp.w	r0, #4096	; 0x1000
     1a0:	d030      	beq.n	204 <analogRead+0x8c>
	if(!(ch & 0x80)) {
     1a2:	061c      	lsls	r4, r3, #24
     1a4:	d41f      	bmi.n	1e6 <analogRead+0x6e>
		ADC1_HC0 = ch;
     1a6:	4c1e      	ldr	r4, [pc, #120]	; (220 <analogRead+0xa8>)
     1a8:	6023      	str	r3, [r4, #0]
		while (!(ADC1_HS & ADC_HS_COCO0)) {
     1aa:	6a23      	ldr	r3, [r4, #32]
     1ac:	07d8      	lsls	r0, r3, #31
     1ae:	d404      	bmi.n	1ba <analogRead+0x42>
			yield(); // TODO: what happens if yield-called code uses analogRead()
     1b0:	f001 f8f0 	bl	1394 <yield>
		while (!(ADC1_HS & ADC_HS_COCO0)) {
     1b4:	6a23      	ldr	r3, [r4, #32]
     1b6:	07d9      	lsls	r1, r3, #31
     1b8:	d5fa      	bpl.n	1b0 <analogRead+0x38>
		return ADC1_R0;
     1ba:	4b19      	ldr	r3, [pc, #100]	; (220 <analogRead+0xa8>)
     1bc:	6a58      	ldr	r0, [r3, #36]	; 0x24
}
     1be:	bdf8      	pop	{r3, r4, r5, r6, r7, pc}
	while ((ADC1_GC & ADC_GC_CAL) || (ADC2_GC & ADC_GC_CAL)) {
     1c0:	4d17      	ldr	r5, [pc, #92]	; (220 <analogRead+0xa8>)
     1c2:	4e18      	ldr	r6, [pc, #96]	; (224 <analogRead+0xac>)
     1c4:	e001      	b.n	1ca <analogRead+0x52>
		yield();
     1c6:	f001 f8e5 	bl	1394 <yield>
	while ((ADC1_GC & ADC_GC_CAL) || (ADC2_GC & ADC_GC_CAL)) {
     1ca:	6cab      	ldr	r3, [r5, #72]	; 0x48
     1cc:	061b      	lsls	r3, r3, #24
     1ce:	d4fa      	bmi.n	1c6 <analogRead+0x4e>
     1d0:	6cb3      	ldr	r3, [r6, #72]	; 0x48
     1d2:	f013 0380 	ands.w	r3, r3, #128	; 0x80
     1d6:	d1f6      	bne.n	1c6 <analogRead+0x4e>
	calibrating = 0;
     1d8:	703b      	strb	r3, [r7, #0]
	uint8_t ch = pin_to_channel[pin];
     1da:	4b0f      	ldr	r3, [pc, #60]	; (218 <analogRead+0xa0>)
     1dc:	5d1b      	ldrb	r3, [r3, r4]
	if (ch == 255) return 0;
     1de:	2bff      	cmp	r3, #255	; 0xff
     1e0:	d1d5      	bne.n	18e <analogRead+0x16>
	if (pin > sizeof(pin_to_channel)) return 0;
     1e2:	2000      	movs	r0, #0
}
     1e4:	bdf8      	pop	{r3, r4, r5, r6, r7, pc}
		ADC2_HC0 = ch & 0x7f;
     1e6:	4c0f      	ldr	r4, [pc, #60]	; (224 <analogRead+0xac>)
     1e8:	f003 037f 	and.w	r3, r3, #127	; 0x7f
     1ec:	6023      	str	r3, [r4, #0]
		while (!(ADC2_HS & ADC_HS_COCO0)) {
     1ee:	6a23      	ldr	r3, [r4, #32]
     1f0:	07da      	lsls	r2, r3, #31
     1f2:	d404      	bmi.n	1fe <analogRead+0x86>
			yield(); // TODO: what happens if yield-called code uses analogRead()
     1f4:	f001 f8ce 	bl	1394 <yield>
		while (!(ADC2_HS & ADC_HS_COCO0)) {
     1f8:	6a23      	ldr	r3, [r4, #32]
     1fa:	07db      	lsls	r3, r3, #31
     1fc:	d5fa      	bpl.n	1f4 <analogRead+0x7c>
		return ADC2_R0;
     1fe:	4b09      	ldr	r3, [pc, #36]	; (224 <analogRead+0xac>)
     200:	6a58      	ldr	r0, [r3, #36]	; 0x24
}
     202:	bdf8      	pop	{r3, r4, r5, r6, r7, pc}
		*pad = padval & ~IOMUXC_PAD_PKE;
     204:	f422 5280 	bic.w	r2, r2, #4096	; 0x1000
	if(!(ch & 0x80)) {
     208:	061c      	lsls	r4, r3, #24
		*pad = padval & ~IOMUXC_PAD_PKE;
     20a:	600a      	str	r2, [r1, #0]
	if(!(ch & 0x80)) {
     20c:	d4eb      	bmi.n	1e6 <analogRead+0x6e>
     20e:	e7ca      	b.n	1a6 <analogRead+0x2e>
	if (pin > sizeof(pin_to_channel)) return 0;
     210:	2000      	movs	r0, #0
}
     212:	4770      	bx	lr
     214:	20000d51 	.word	0x20000d51
     218:	20000500 	.word	0x20000500
     21c:	20000280 	.word	0x20000280
     220:	400c4000 	.word	0x400c4000
     224:	400c8000 	.word	0x400c8000

00000228 <analogReadRes>:
   if (bits == 8) {
     228:	2808      	cmp	r0, #8
{
     22a:	b430      	push	{r4, r5}
   if (bits == 8) {
     22c:	d022      	beq.n	274 <analogReadRes+0x4c>
    mode = ADC_CFG_MODE(2) | ADC_CFG_ADSTS(3) | ADC_CFG_ADLSMP;
     22e:	280a      	cmp	r0, #10
     230:	bf0c      	ite	eq
     232:	f44f 7105 	moveq.w	r1, #532	; 0x214
     236:	f44f 7146 	movne.w	r1, #792	; 0x318
  tmp32  = (ADC1_CFG & (0xFFFFFC00));
     23a:	4c10      	ldr	r4, [pc, #64]	; (27c <analogReadRes+0x54>)
     23c:	4d10      	ldr	r5, [pc, #64]	; (280 <analogReadRes+0x58>)
     23e:	6c63      	ldr	r3, [r4, #68]	; 0x44
  tmp32 |= (ADC1_CFG & (0x03));  // ADICLK
     240:	6c62      	ldr	r2, [r4, #68]	; 0x44
  tmp32  = (ADC1_CFG & (0xFFFFFC00));
     242:	402b      	ands	r3, r5
  tmp32  = (ADC2_CFG & (0xFFFFFC00));
     244:	480f      	ldr	r0, [pc, #60]	; (284 <analogReadRes+0x5c>)
  tmp32 |= (ADC1_CFG & (0x03));  // ADICLK
     246:	f002 0203 	and.w	r2, r2, #3
     24a:	431a      	orrs	r2, r3
  tmp32 |= (ADC1_CFG & (0xE0));  // ADIV & ADLPC
     24c:	6c63      	ldr	r3, [r4, #68]	; 0x44
     24e:	f003 03e0 	and.w	r3, r3, #224	; 0xe0
     252:	4313      	orrs	r3, r2
  tmp32 |= mode; 
     254:	430b      	orrs	r3, r1
  ADC1_CFG = tmp32;
     256:	6463      	str	r3, [r4, #68]	; 0x44
  tmp32  = (ADC2_CFG & (0xFFFFFC00));
     258:	6c43      	ldr	r3, [r0, #68]	; 0x44
  tmp32 |= (ADC2_CFG & (0x03));  // ADICLK
     25a:	6c42      	ldr	r2, [r0, #68]	; 0x44
  tmp32  = (ADC2_CFG & (0xFFFFFC00));
     25c:	402b      	ands	r3, r5
  tmp32 |= (ADC2_CFG & (0x03));  // ADICLK
     25e:	f002 0203 	and.w	r2, r2, #3
     262:	431a      	orrs	r2, r3
  tmp32 |= (ADC2_CFG & (0xE0));  // ADIV & ADLPC
     264:	6c43      	ldr	r3, [r0, #68]	; 0x44
     266:	f003 03e0 	and.w	r3, r3, #224	; 0xe0
     26a:	4313      	orrs	r3, r2
  tmp32 |= mode; 
     26c:	4319      	orrs	r1, r3
}
     26e:	bc30      	pop	{r4, r5}
  ADC2_CFG = tmp32;
     270:	6441      	str	r1, [r0, #68]	; 0x44
}
     272:	4770      	bx	lr
    mode = ADC_CFG_MODE(0) | ADC_CFG_ADSTS(3);
     274:	f44f 7140 	mov.w	r1, #768	; 0x300
     278:	e7df      	b.n	23a <analogReadRes+0x12>
     27a:	bf00      	nop
     27c:	400c4000 	.word	0x400c4000
     280:	fffffc00 	.word	0xfffffc00
     284:	400c8000 	.word	0x400c8000

00000288 <analogReadAveraging>:
{
     288:	b410      	push	{r4}
  ADC1_GC &= ~0x20;
     28a:	4c1f      	ldr	r4, [pc, #124]	; (308 <analogReadAveraging+0x80>)
    if (num >= 32) {
     28c:	281f      	cmp	r0, #31
  ADC2_GC &= ~0x20;
     28e:	491f      	ldr	r1, [pc, #124]	; (30c <analogReadAveraging+0x84>)
  ADC1_GC &= ~0x20;
     290:	6ca3      	ldr	r3, [r4, #72]	; 0x48
     292:	f023 0320 	bic.w	r3, r3, #32
     296:	64a3      	str	r3, [r4, #72]	; 0x48
  mode = ADC1_CFG & ~0xC000;
     298:	6c62      	ldr	r2, [r4, #68]	; 0x44
  ADC2_GC &= ~0x20;
     29a:	6c8b      	ldr	r3, [r1, #72]	; 0x48
  mode = ADC1_CFG & ~0xC000;
     29c:	f422 4240 	bic.w	r2, r2, #49152	; 0xc000
  ADC2_GC &= ~0x20;
     2a0:	f023 0320 	bic.w	r3, r3, #32
     2a4:	648b      	str	r3, [r1, #72]	; 0x48
  mode1 = ADC2_CFG & ~0xC000;
     2a6:	6c4b      	ldr	r3, [r1, #68]	; 0x44
     2a8:	f423 4340 	bic.w	r3, r3, #49152	; 0xc000
    if (num >= 32) {
     2ac:	d912      	bls.n	2d4 <analogReadAveraging+0x4c>
      mode |= ADC_CFG_AVGS(3);
     2ae:	f442 4240 	orr.w	r2, r2, #49152	; 0xc000
      mode1 |= ADC_CFG_AVGS(3);
     2b2:	f443 4340 	orr.w	r3, r3, #49152	; 0xc000
  ADC1_CFG = mode;
     2b6:	6462      	str	r2, [r4, #68]	; 0x44
  ADC2_CFG = mode1;
     2b8:	644b      	str	r3, [r1, #68]	; 0x44
      ADC1_GC |= ADC_GC_AVGE;// turns on averaging
     2ba:	4913      	ldr	r1, [pc, #76]	; (308 <analogReadAveraging+0x80>)
      ADC2_GC |= ADC_GC_AVGE;// turns on averaging
     2bc:	4a13      	ldr	r2, [pc, #76]	; (30c <analogReadAveraging+0x84>)
      ADC1_GC |= ADC_GC_AVGE;// turns on averaging
     2be:	6c8b      	ldr	r3, [r1, #72]	; 0x48
}
     2c0:	f85d 4b04 	ldr.w	r4, [sp], #4
      ADC1_GC |= ADC_GC_AVGE;// turns on averaging
     2c4:	f043 0320 	orr.w	r3, r3, #32
     2c8:	648b      	str	r3, [r1, #72]	; 0x48
      ADC2_GC |= ADC_GC_AVGE;// turns on averaging
     2ca:	6c93      	ldr	r3, [r2, #72]	; 0x48
     2cc:	f043 0320 	orr.w	r3, r3, #32
     2d0:	6493      	str	r3, [r2, #72]	; 0x48
}
     2d2:	4770      	bx	lr
    } else if (num >= 16) {
     2d4:	280f      	cmp	r0, #15
     2d6:	d908      	bls.n	2ea <analogReadAveraging+0x62>
      mode |= ADC_CFG_AVGS(2);
     2d8:	f442 4200 	orr.w	r2, r2, #32768	; 0x8000
      mode1 |= ADC_CFG_AVGS(2);
     2dc:	f443 4300 	orr.w	r3, r3, #32768	; 0x8000
  ADC1_CFG = mode;
     2e0:	4809      	ldr	r0, [pc, #36]	; (308 <analogReadAveraging+0x80>)
  ADC2_CFG = mode1;
     2e2:	490a      	ldr	r1, [pc, #40]	; (30c <analogReadAveraging+0x84>)
  ADC1_CFG = mode;
     2e4:	6442      	str	r2, [r0, #68]	; 0x44
  ADC2_CFG = mode1;
     2e6:	644b      	str	r3, [r1, #68]	; 0x44
  if(num >= 4){
     2e8:	e7e7      	b.n	2ba <analogReadAveraging+0x32>
    } else if (num >= 8) {
     2ea:	2807      	cmp	r0, #7
     2ec:	d904      	bls.n	2f8 <analogReadAveraging+0x70>
      mode |= ADC_CFG_AVGS(1);
     2ee:	f442 4280 	orr.w	r2, r2, #16384	; 0x4000
      mode1 |= ADC_CFG_AVGS(1);
     2f2:	f443 4380 	orr.w	r3, r3, #16384	; 0x4000
     2f6:	e7f3      	b.n	2e0 <analogReadAveraging+0x58>
  if(num >= 4){
     2f8:	2803      	cmp	r0, #3
  ADC1_CFG = mode;
     2fa:	6462      	str	r2, [r4, #68]	; 0x44
  ADC2_CFG = mode1;
     2fc:	644b      	str	r3, [r1, #68]	; 0x44
  if(num >= 4){
     2fe:	d8dc      	bhi.n	2ba <analogReadAveraging+0x32>
}
     300:	f85d 4b04 	ldr.w	r4, [sp], #4
     304:	4770      	bx	lr
     306:	bf00      	nop
     308:	400c4000 	.word	0x400c4000
     30c:	400c8000 	.word	0x400c8000

00000310 <delay>:
	if (msec == 0) return;
     310:	b900      	cbnz	r0, 314 <delay+0x4>
     312:	4770      	bx	lr
{
     314:	e92d 4ff8 	stmdb	sp!, {r3, r4, r5, r6, r7, r8, r9, sl, fp, lr}
 */
__attribute__( ( always_inline ) ) __STATIC_INLINE uint32_t __STREXW(uint32_t value, volatile uint32_t *addr)
{
   uint32_t result;

   __ASM volatile ("strex %0, %2, [%1]" : "=&r" (result) : "r" (addr), "r" (value) );
     318:	2101      	movs	r1, #1
     31a:	4681      	mov	r9, r0
     31c:	4c21      	ldr	r4, [pc, #132]	; (3a4 <delay+0x94>)
     31e:	4d22      	ldr	r5, [pc, #136]	; (3a8 <delay+0x98>)
     320:	4e22      	ldr	r6, [pc, #136]	; (3ac <delay+0x9c>)
   __ASM volatile ("ldrex %0, [%1]" : "=r" (result) : "r" (addr) );
     322:	e854 3f00 	ldrex	r3, [r4]
		smc = systick_millis_count;
     326:	682a      	ldr	r2, [r5, #0]
		scc = systick_cycle_count;
     328:	6830      	ldr	r0, [r6, #0]
   __ASM volatile ("strex %0, %2, [%1]" : "=&r" (result) : "r" (addr), "r" (value) );
     32a:	e844 1300 	strex	r3, r1, [r4]
	} while ( __STREXW(1, &systick_safe_read));
     32e:	2b00      	cmp	r3, #0
     330:	d1f7      	bne.n	322 <delay+0x12>
	uint32_t cyccnt = ARM_DWT_CYCCNT;
     332:	491f      	ldr	r1, [pc, #124]	; (3b0 <delay+0xa0>)
     334:	684b      	ldr	r3, [r1, #4]
	uint32_t usec = 1000*smc + frac;
     336:	f44f 7b7a 	mov.w	fp, #1000	; 0x3e8
	uint32_t frac = ((uint64_t)ccdelta * scale_cpu_cycles_to_microseconds) >> 32;
     33a:	f8df a078 	ldr.w	sl, [pc, #120]	; 3b4 <delay+0xa4>
	uint32_t ccdelta = cyccnt - scc;
     33e:	1a1b      	subs	r3, r3, r0
     340:	2701      	movs	r7, #1
	uint32_t usec = 1000*smc + frac;
     342:	fb0b f802 	mul.w	r8, fp, r2
	uint32_t frac = ((uint64_t)ccdelta * scale_cpu_cycles_to_microseconds) >> 32;
     346:	f8da 2000 	ldr.w	r2, [sl]
     34a:	fba3 3202 	umull	r3, r2, r3, r2
	uint32_t usec = 1000*smc + frac;
     34e:	455a      	cmp	r2, fp
     350:	bf94      	ite	ls
     352:	4490      	addls	r8, r2
     354:	44d8      	addhi	r8, fp
   __ASM volatile ("ldrex %0, [%1]" : "=r" (result) : "r" (addr) );
     356:	e854 3f00 	ldrex	r3, [r4]
		smc = systick_millis_count;
     35a:	682a      	ldr	r2, [r5, #0]
		scc = systick_cycle_count;
     35c:	6830      	ldr	r0, [r6, #0]
   __ASM volatile ("strex %0, %2, [%1]" : "=&r" (result) : "r" (addr), "r" (value) );
     35e:	e844 7300 	strex	r3, r7, [r4]
	} while ( __STREXW(1, &systick_safe_read));
     362:	2b00      	cmp	r3, #0
     364:	d1f7      	bne.n	356 <delay+0x46>
	uint32_t cyccnt = ARM_DWT_CYCCNT;
     366:	684b      	ldr	r3, [r1, #4]
	uint32_t frac = ((uint64_t)ccdelta * scale_cpu_cycles_to_microseconds) >> 32;
     368:	f8da c000 	ldr.w	ip, [sl]
	uint32_t ccdelta = cyccnt - scc;
     36c:	1a1b      	subs	r3, r3, r0
	uint32_t usec = 1000*smc + frac;
     36e:	fb0b f202 	mul.w	r2, fp, r2
	uint32_t frac = ((uint64_t)ccdelta * scale_cpu_cycles_to_microseconds) >> 32;
     372:	fba3 3c0c 	umull	r3, ip, r3, ip
	uint32_t usec = 1000*smc + frac;
     376:	f5bc 7f7a 	cmp.w	ip, #1000	; 0x3e8
     37a:	bf94      	ite	ls
     37c:	4462      	addls	r2, ip
     37e:	f502 727a 	addhi.w	r2, r2, #1000	; 0x3e8
		while ((micros() - start) >= 1000) {
     382:	eba2 0208 	sub.w	r2, r2, r8
     386:	f5b2 7f7a 	cmp.w	r2, #1000	; 0x3e8
     38a:	d306      	bcc.n	39a <delay+0x8a>
			if (--msec == 0) return;
     38c:	f1b9 0901 	subs.w	r9, r9, #1
			start += 1000;
     390:	f508 787a 	add.w	r8, r8, #1000	; 0x3e8
			if (--msec == 0) return;
     394:	d1df      	bne.n	356 <delay+0x46>
}
     396:	e8bd 8ff8 	ldmia.w	sp!, {r3, r4, r5, r6, r7, r8, r9, sl, fp, pc}
		yield();
     39a:	f000 fffb 	bl	1394 <yield>
		while ((micros() - start) >= 1000) {
     39e:	4904      	ldr	r1, [pc, #16]	; (3b0 <delay+0xa0>)
     3a0:	e7d9      	b.n	356 <delay+0x46>
     3a2:	bf00      	nop
     3a4:	20000d30 	.word	0x20000d30
     3a8:	20000d2c 	.word	0x20000d2c
     3ac:	20000d28 	.word	0x20000d28
     3b0:	e0001000 	.word	0xe0001000
     3b4:	20000d24 	.word	0x20000d24

000003b8 <main>:
 */

#include <Arduino.h>

extern "C" int main(void)
{
     3b8:	b508      	push	{r3, lr}
	}


#else
	// Arduino's main() function just calls setup() and loop()....
	setup();
     3ba:	f7ff fe55 	bl	68 <setup>
	while (1) {
		loop();
     3be:	f7ff fe95 	bl	ec <loop>
		yield();
     3c2:	f000 ffe7 	bl	1394 <yield>
	while (1) {
     3c6:	e7fa      	b.n	3be <main+0x6>

000003c8 <unused_interrupt_vector>:
	__disable_irq();
     3c8:	b672      	cpsid	i
	asm volatile("mrs %0, ipsr\n" : "=r" (ipsr) :: "memory");
     3ca:	f3ef 8305 	mrs	r3, IPSR
	info->ipsr = ipsr;
     3ce:	4c52      	ldr	r4, [pc, #328]	; (518 <unused_interrupt_vector+0x150>)
     3d0:	f8c4 3084 	str.w	r3, [r4, #132]	; 0x84
	asm volatile("tst lr, #4\nite eq\nmrseq %0, msp\nmrsne %0, psp\n" : "=r" (stack) :: "memory");
     3d4:	f01e 0f04 	tst.w	lr, #4
     3d8:	bf0c      	ite	eq
     3da:	f3ef 8208 	mrseq	r2, MSP
     3de:	f3ef 8209 	mrsne	r2, PSP
	info->cfsr = SCB_CFSR;
     3e2:	f04f 23e0 	mov.w	r3, #3758153728	; 0xe000e000
	p = (uint32_t *)info;
     3e6:	4e4d      	ldr	r6, [pc, #308]	; (51c <unused_interrupt_vector+0x154>)
	while (p < end) {
     3e8:	4d4d      	ldr	r5, [pc, #308]	; (520 <unused_interrupt_vector+0x158>)
	info->cfsr = SCB_CFSR;
     3ea:	f8d3 0d28 	ldr.w	r0, [r3, #3368]	; 0xd28
	info->hfsr = SCB_HFSR;
     3ee:	f8d3 1d2c 	ldr.w	r1, [r3, #3372]	; 0xd2c
     3f2:	e9c4 0122 	strd	r0, r1, [r4, #136]	; 0x88
	info->mmfar = SCB_MMFAR;
     3f6:	f8d3 1d34 	ldr.w	r1, [r3, #3380]	; 0xd34
	info->bfar = SCB_BFAR;
     3fa:	f8d3 3d38 	ldr.w	r3, [r3, #3384]	; 0xd38
     3fe:	e9c4 1324 	strd	r1, r3, [r4, #144]	; 0x90
	info->ret = stack[6];
     402:	6993      	ldr	r3, [r2, #24]
     404:	f8c4 3098 	str.w	r3, [r4, #152]	; 0x98
	info->xpsr = stack[7];
     408:	69d3      	ldr	r3, [r2, #28]
     40a:	f8c4 309c 	str.w	r3, [r4, #156]	; 0x9c
	info->temp = tempmonGetTemp();
     40e:	f000 f8a3 	bl	558 <tempmonGetTemp>
     412:	ed84 0a28 	vstr	s0, [r4, #160]	; 0xa0
	info->time = rtc_get();
     416:	f001 fb59 	bl	1acc <rtc_get>
	info->len = sizeof(*info) / 4;
     41a:	210b      	movs	r1, #11
	crc = 0xFFFFFFFF;
     41c:	f04f 32ff 	mov.w	r2, #4294967295	; 0xffffffff
	info->time = rtc_get();
     420:	f8c4 00a4 	str.w	r0, [r4, #164]	; 0xa4
	info->len = sizeof(*info) / 4;
     424:	460b      	mov	r3, r1
     426:	f8c4 1080 	str.w	r1, [r4, #128]	; 0x80
		for (i=0; i < 32; i++) crc = (crc >> 1) ^ (crc & 1)*0xEDB88320;
     42a:	493e      	ldr	r1, [pc, #248]	; (524 <unused_interrupt_vector+0x15c>)
		crc ^= *p++;
     42c:	1d30      	adds	r0, r6, #4
     42e:	405a      	eors	r2, r3
     430:	2420      	movs	r4, #32
		for (i=0; i < 32; i++) crc = (crc >> 1) ^ (crc & 1)*0xEDB88320;
     432:	f002 0301 	and.w	r3, r2, #1
     436:	3c01      	subs	r4, #1
     438:	fb01 f303 	mul.w	r3, r1, r3
     43c:	ea83 0252 	eor.w	r2, r3, r2, lsr #1
     440:	d1f7      	bne.n	432 <unused_interrupt_vector+0x6a>
	while (p < end) {
     442:	42a8      	cmp	r0, r5
     444:	d002      	beq.n	44c <unused_interrupt_vector+0x84>
		crc ^= *p++;
     446:	6873      	ldr	r3, [r6, #4]
     448:	4606      	mov	r6, r0
     44a:	e7ef      	b.n	42c <unused_interrupt_vector+0x64>
	info->crc = crc;
     44c:	4b32      	ldr	r3, [pc, #200]	; (518 <unused_interrupt_vector+0x150>)
     44e:	f8c3 20a8 	str.w	r2, [r3, #168]	; 0xa8
static inline void arm_dcache_flush_delete(void *addr, uint32_t size)
{
	uint32_t location = (uint32_t)addr & 0xFFFFFFE0;
	uint32_t end_addr = (uint32_t)addr + size;
	asm volatile("": : :"memory");
	asm("dsb");
     452:	f3bf 8f4f 	dsb	sy
	do {
		SCB_CACHE_DCCIMVAC = location;
     456:	f04f 23e0 	mov.w	r3, #3758153728	; 0xe000e000
     45a:	4930      	ldr	r1, [pc, #192]	; (51c <unused_interrupt_vector+0x154>)
     45c:	4a32      	ldr	r2, [pc, #200]	; (528 <unused_interrupt_vector+0x160>)
     45e:	f8c3 1f70 	str.w	r1, [r3, #3952]	; 0xf70
     462:	f8c3 2f70 	str.w	r2, [r3, #3952]	; 0xf70
		location += 32;
	} while (location < end_addr);
	asm("dsb");
     466:	f3bf 8f4f 	dsb	sy
	asm("isb");
     46a:	f3bf 8f6f 	isb	sy
	CCM_CCGR1 |= CCM_CCGR1_PIT(CCM_CCGR_ON);
     46e:	4a2f      	ldr	r2, [pc, #188]	; (52c <unused_interrupt_vector+0x164>)
	PIT_MCR = PIT_MCR_MDIS;
     470:	2502      	movs	r5, #2
     472:	482f      	ldr	r0, [pc, #188]	; (530 <unused_interrupt_vector+0x168>)
	CCM_CCGR1 |= CCM_CCGR1_PIT(CCM_CCGR_ON);
     474:	6ed3      	ldr	r3, [r2, #108]	; 0x6c
  	if (F_CPU_ACTUAL > 198000000) set_arm_clock(198000000);
     476:	492f      	ldr	r1, [pc, #188]	; (534 <unused_interrupt_vector+0x16c>)
	CCM_CCGR1 |= CCM_CCGR1_PIT(CCM_CCGR_ON);
     478:	f443 5340 	orr.w	r3, r3, #12288	; 0x3000
     47c:	66d3      	str	r3, [r2, #108]	; 0x6c
	PIT_MCR = PIT_MCR_MDIS;
     47e:	6005      	str	r5, [r0, #0]
	CCM_CSCMR1 = (CCM_CSCMR1 & ~CCM_CSCMR1_PERCLK_PODF(0x3F)) | CCM_CSCMR1_PERCLK_CLK_SEL;
     480:	69d3      	ldr	r3, [r2, #28]
  	if (F_CPU_ACTUAL > 198000000) set_arm_clock(198000000);
     482:	482d      	ldr	r0, [pc, #180]	; (538 <unused_interrupt_vector+0x170>)
	CCM_CSCMR1 = (CCM_CSCMR1 & ~CCM_CSCMR1_PERCLK_PODF(0x3F)) | CCM_CSCMR1_PERCLK_CLK_SEL;
     484:	f023 037f 	bic.w	r3, r3, #127	; 0x7f
     488:	f043 0340 	orr.w	r3, r3, #64	; 0x40
     48c:	61d3      	str	r3, [r2, #28]
  	if (F_CPU_ACTUAL > 198000000) set_arm_clock(198000000);
     48e:	680b      	ldr	r3, [r1, #0]
     490:	4283      	cmp	r3, r0
     492:	d83d      	bhi.n	510 <unused_interrupt_vector+0x148>
	PIT_MCR = 0;
     494:	4d26      	ldr	r5, [pc, #152]	; (530 <unused_interrupt_vector+0x168>)
     496:	2100      	movs	r1, #0
	NVIC_ICER0 = 0xFFFFFFFF;
     498:	f04f 23e0 	mov.w	r3, #3758153728	; 0xe000e000
     49c:	f04f 32ff 	mov.w	r2, #4294967295	; 0xffffffff
	PIT_MCR = 0;
     4a0:	6029      	str	r1, [r5, #0]
	PIT_TCTRL0 = PIT_TCTRL_TEN;
     4a2:	2601      	movs	r6, #1
	PIT_TCTRL0 = 0;
     4a4:	f8c5 1108 	str.w	r1, [r5, #264]	; 0x108
	PIT_LDVAL0 = 2400000; // 2400000 = 100ms
     4a8:	4924      	ldr	r1, [pc, #144]	; (53c <unused_interrupt_vector+0x174>)
     4aa:	f8c5 1100 	str.w	r1, [r5, #256]	; 0x100
	PIT_TCTRL0 = PIT_TCTRL_TEN;
     4ae:	f8c5 6108 	str.w	r6, [r5, #264]	; 0x108
	NVIC_ICER0 = 0xFFFFFFFF;
     4b2:	f8c3 2180 	str.w	r2, [r3, #384]	; 0x180
	NVIC_ICER1 = 0xFFFFFFFF;
     4b6:	f8c3 2184 	str.w	r2, [r3, #388]	; 0x184
	NVIC_ICER2 = 0xFFFFFFFF;
     4ba:	f8c3 2188 	str.w	r2, [r3, #392]	; 0x188
	NVIC_ICER3 = 0xFFFFFFFF;
     4be:	f8c3 218c 	str.w	r2, [r3, #396]	; 0x18c
	NVIC_ICER4 = 0xFFFFFFFF;
     4c2:	f8c3 2190 	str.w	r2, [r3, #400]	; 0x190
	count = 0;
     4c6:	e001      	b.n	4cc <unused_interrupt_vector+0x104>
		usb_isr();
     4c8:	f000 f938 	bl	73c <usb_isr>
		if (PIT_TFLG0) {
     4cc:	f8d5 310c 	ldr.w	r3, [r5, #268]	; 0x10c
     4d0:	2b00      	cmp	r3, #0
     4d2:	d0f9      	beq.n	4c8 <unused_interrupt_vector+0x100>
			if (++count >= 80) break;  // reboot after 8 seconds
     4d4:	3401      	adds	r4, #1
			PIT_TFLG0 = 1;
     4d6:	f8c5 610c 	str.w	r6, [r5, #268]	; 0x10c
			if (++count >= 80) break;  // reboot after 8 seconds
     4da:	2c4f      	cmp	r4, #79	; 0x4f
     4dc:	d9f4      	bls.n	4c8 <unused_interrupt_vector+0x100>
	USBPHY1_CTRL_SET = USBPHY_CTRL_SFTRST;
     4de:	4b18      	ldr	r3, [pc, #96]	; (540 <unused_interrupt_vector+0x178>)
	USB1_USBCMD = USB_USBCMD_RST;
     4e0:	2002      	movs	r0, #2
     4e2:	4918      	ldr	r1, [pc, #96]	; (544 <unused_interrupt_vector+0x17c>)
	USBPHY1_CTRL_SET = USBPHY_CTRL_SFTRST;
     4e4:	f04f 4200 	mov.w	r2, #2147483648	; 0x80000000
	USB1_USBCMD = USB_USBCMD_RST;
     4e8:	f8c1 0140 	str.w	r0, [r1, #320]	; 0x140
	USBPHY1_CTRL_SET = USBPHY_CTRL_SFTRST;
     4ec:	635a      	str	r2, [r3, #52]	; 0x34
	while (PIT_TFLG0 == 0) /* wait 0.1 second for PC to know USB unplugged */
     4ee:	f8d5 310c 	ldr.w	r3, [r5, #268]	; 0x10c
     4f2:	b93b      	cbnz	r3, 504 <unused_interrupt_vector+0x13c>
	SRC_GPR5 = 0x0BAD00F1;
     4f4:	4814      	ldr	r0, [pc, #80]	; (548 <unused_interrupt_vector+0x180>)
     4f6:	4915      	ldr	r1, [pc, #84]	; (54c <unused_interrupt_vector+0x184>)
	while (PIT_TFLG0 == 0) /* wait 0.1 second for PC to know USB unplugged */
     4f8:	4a0d      	ldr	r2, [pc, #52]	; (530 <unused_interrupt_vector+0x168>)
	SRC_GPR5 = 0x0BAD00F1;
     4fa:	6301      	str	r1, [r0, #48]	; 0x30
	while (PIT_TFLG0 == 0) /* wait 0.1 second for PC to know USB unplugged */
     4fc:	f8d2 310c 	ldr.w	r3, [r2, #268]	; 0x10c
     500:	2b00      	cmp	r3, #0
     502:	d0fa      	beq.n	4fa <unused_interrupt_vector+0x132>
	SCB_AIRCR = 0x05FA0004;
     504:	f04f 23e0 	mov.w	r3, #3758153728	; 0xe000e000
     508:	4a11      	ldr	r2, [pc, #68]	; (550 <unused_interrupt_vector+0x188>)
     50a:	f8c3 2d0c 	str.w	r2, [r3, #3340]	; 0xd0c
	while (1) ;
     50e:	e7fe      	b.n	50e <unused_interrupt_vector+0x146>
  	if (F_CPU_ACTUAL > 198000000) set_arm_clock(198000000);
     510:	f000 ffe0 	bl	14d4 <set_arm_clock>
     514:	e7be      	b.n	494 <unused_interrupt_vector+0xcc>
     516:	bf00      	nop
     518:	2027ff00 	.word	0x2027ff00
     51c:	2027ff80 	.word	0x2027ff80
     520:	2027ffa8 	.word	0x2027ffa8
     524:	edb88320 	.word	0xedb88320
     528:	2027ffa0 	.word	0x2027ffa0
     52c:	400fc000 	.word	0x400fc000
     530:	40084000 	.word	0x40084000
     534:	200005a4 	.word	0x200005a4
     538:	0bcd3d80 	.word	0x0bcd3d80
     53c:	00249f00 	.word	0x00249f00
     540:	400d9000 	.word	0x400d9000
     544:	402e0000 	.word	0x402e0000
     548:	400f8000 	.word	0x400f8000
     54c:	0bad00f1 	.word	0x0bad00f1
     550:	05fa0004 	.word	0x05fa0004

00000554 <Panic_Temp_isr>:
  unused_interrupt_vector();
     554:	f7ff bf38 	b.w	3c8 <unused_interrupt_vector>

00000558 <tempmonGetTemp>:
float tempmonGetTemp(void)
{
    uint32_t nmeas;
    float tmeas;

    while (!(TEMPMON_TEMPSENSE0 & 0x4U))
     558:	4a12      	ldr	r2, [pc, #72]	; (5a4 <tempmonGetTemp+0x4c>)
     55a:	f8d2 3080 	ldr.w	r3, [r2, #128]	; 0x80
     55e:	075b      	lsls	r3, r3, #29
     560:	d5fb      	bpl.n	55a <tempmonGetTemp+0x2>
    {
    }

    /* ready to read temperature code value */
    nmeas = (TEMPMON_TEMPSENSE0 & 0xFFF00U) >> 8U;
     562:	f8d2 3080 	ldr.w	r3, [r2, #128]	; 0x80
    /* Calculate temperature */
    tmeas = s_hotTemp - (((float)nmeas - (float)s_hotCount) * s_hot_ROOM / s_roomC_hotC);
     566:	4810      	ldr	r0, [pc, #64]	; (5a8 <tempmonGetTemp+0x50>)
    nmeas = (TEMPMON_TEMPSENSE0 & 0xFFF00U) >> 8U;
     568:	f3c3 230b 	ubfx	r3, r3, #8, #12
    tmeas = s_hotTemp - (((float)nmeas - (float)s_hotCount) * s_hot_ROOM / s_roomC_hotC);
     56c:	490f      	ldr	r1, [pc, #60]	; (5ac <tempmonGetTemp+0x54>)
     56e:	ed90 7a00 	vldr	s14, [r0]
    nmeas = (TEMPMON_TEMPSENSE0 & 0xFFF00U) >> 8U;
     572:	ee07 3a90 	vmov	s15, r3
    tmeas = s_hotTemp - (((float)nmeas - (float)s_hotCount) * s_hot_ROOM / s_roomC_hotC);
     576:	ed91 6a00 	vldr	s12, [r1]
     57a:	eeb8 7a47 	vcvt.f32.u32	s14, s14
     57e:	4a0c      	ldr	r2, [pc, #48]	; (5b0 <tempmonGetTemp+0x58>)
     580:	eef8 7ae7 	vcvt.f32.s32	s15, s15
     584:	4b0b      	ldr	r3, [pc, #44]	; (5b4 <tempmonGetTemp+0x5c>)
     586:	edd2 6a00 	vldr	s13, [r2]
     58a:	ee77 7ac7 	vsub.f32	s15, s15, s14
     58e:	ed93 7a00 	vldr	s14, [r3]
     592:	eeb8 7a47 	vcvt.f32.u32	s14, s14
     596:	ee67 7a86 	vmul.f32	s15, s15, s12
     59a:	ee87 0aa6 	vdiv.f32	s0, s15, s13

    return tmeas;
}
     59e:	ee37 0a40 	vsub.f32	s0, s14, s0
     5a2:	4770      	bx	lr
     5a4:	400d8100 	.word	0x400d8100
     5a8:	20000d14 	.word	0x20000d14
     5ac:	20000d1c 	.word	0x20000d1c
     5b0:	20000d20 	.word	0x20000d20
     5b4:	20000d18 	.word	0x20000d18

000005b8 <schedule_transfer>:
{
	// when we stop at 6, why is the last transfer missing from the USB output?
	//if (transfer_log_count >= 6) return;

	//uint32_t ret = (*(const uint8_t *)transfer->pointer0) << 8;
	if (endpoint->callback_function) {
     5b8:	6b83      	ldr	r3, [r0, #56]	; 0x38
{
     5ba:	b4f0      	push	{r4, r5, r6, r7}
	if (endpoint->callback_function) {
     5bc:	b11b      	cbz	r3, 5c6 <schedule_transfer+0xe>
		transfer->status |= (1<<15);
     5be:	6853      	ldr	r3, [r2, #4]
     5c0:	f443 4300 	orr.w	r3, r3, #32768	; 0x8000
     5c4:	6053      	str	r3, [r2, #4]
	}
	__disable_irq();
     5c6:	b672      	cpsid	i
	//digitalWriteFast(1, HIGH);
	// Executing A Transfer Descriptor, page 2468 (RT1060 manual, Rev 1, 12/2018)
	transfer_t *last = endpoint->last_transfer;
     5c8:	6b44      	ldr	r4, [r0, #52]	; 0x34
	if (last) {
     5ca:	b33c      	cbz	r4, 61c <schedule_transfer+0x64>
		last->next = (uint32_t)transfer;
		if (USB1_ENDPTPRIME & epmask) goto end;
     5cc:	4b1a      	ldr	r3, [pc, #104]	; (638 <schedule_transfer+0x80>)
		last->next = (uint32_t)transfer;
     5ce:	6022      	str	r2, [r4, #0]
		if (USB1_ENDPTPRIME & epmask) goto end;
     5d0:	f8d3 41b0 	ldr.w	r4, [r3, #432]	; 0x1b0
     5d4:	420c      	tst	r4, r1
     5d6:	d11d      	bne.n	614 <schedule_transfer+0x5c>
		//digitalWriteFast(2, HIGH);
		//ret |= 0x01;
		uint32_t status, cyccnt=ARM_DWT_CYCCNT;
     5d8:	4e18      	ldr	r6, [pc, #96]	; (63c <schedule_transfer+0x84>)
     5da:	6877      	ldr	r7, [r6, #4]
     5dc:	e004      	b.n	5e8 <schedule_transfer+0x30>
		do {
			USB1_USBCMD |= USB_USBCMD_ATDTW;
			status = USB1_ENDPTSTATUS;
		} while (!(USB1_USBCMD & USB_USBCMD_ATDTW) && (ARM_DWT_CYCCNT - cyccnt < 2400));
     5de:	6874      	ldr	r4, [r6, #4]
     5e0:	1be4      	subs	r4, r4, r7
     5e2:	f5b4 6f16 	cmp.w	r4, #2400	; 0x960
     5e6:	d20b      	bcs.n	600 <schedule_transfer+0x48>
			USB1_USBCMD |= USB_USBCMD_ATDTW;
     5e8:	f8d3 4140 	ldr.w	r4, [r3, #320]	; 0x140
     5ec:	f444 4480 	orr.w	r4, r4, #16384	; 0x4000
     5f0:	f8c3 4140 	str.w	r4, [r3, #320]	; 0x140
			status = USB1_ENDPTSTATUS;
     5f4:	f8d3 51b8 	ldr.w	r5, [r3, #440]	; 0x1b8
		} while (!(USB1_USBCMD & USB_USBCMD_ATDTW) && (ARM_DWT_CYCCNT - cyccnt < 2400));
     5f8:	f8d3 4140 	ldr.w	r4, [r3, #320]	; 0x140
     5fc:	0464      	lsls	r4, r4, #17
     5fe:	d5ee      	bpl.n	5de <schedule_transfer+0x26>
		//USB1_USBCMD &= ~USB_USBCMD_ATDTW;
		if (status & epmask) goto end;
     600:	400d      	ands	r5, r1
     602:	d107      	bne.n	614 <schedule_transfer+0x5c>
		//ret |= 0x02;
		endpoint->next = (uint32_t)transfer;
		endpoint->status = 0;
		USB1_ENDPTPRIME |= epmask;
     604:	4c0c      	ldr	r4, [pc, #48]	; (638 <schedule_transfer+0x80>)
		endpoint->status = 0;
     606:	e9c0 2502 	strd	r2, r5, [r0, #8]
		USB1_ENDPTPRIME |= epmask;
     60a:	f8d4 31b0 	ldr.w	r3, [r4, #432]	; 0x1b0
     60e:	430b      	orrs	r3, r1
     610:	f8c4 31b0 	str.w	r3, [r4, #432]	; 0x1b0
	endpoint->next = (uint32_t)transfer;
	endpoint->status = 0;
	USB1_ENDPTPRIME |= epmask;
	endpoint->first_transfer = transfer;
end:
	endpoint->last_transfer = transfer;
     614:	6342      	str	r2, [r0, #52]	; 0x34
	__enable_irq();
     616:	b662      	cpsie	i
	//digitalWriteFast(2, LOW);
	//digitalWriteFast(1, LOW);
	//if (transfer_log_head > LOG_SIZE) transfer_log_head = 0;
	//transfer_log[transfer_log_head++] = ret;
	//transfer_log_count++;
}
     618:	bcf0      	pop	{r4, r5, r6, r7}
     61a:	4770      	bx	lr
	USB1_ENDPTPRIME |= epmask;
     61c:	4d06      	ldr	r5, [pc, #24]	; (638 <schedule_transfer+0x80>)
	endpoint->status = 0;
     61e:	e9c0 2402 	strd	r2, r4, [r0, #8]
	USB1_ENDPTPRIME |= epmask;
     622:	f8d5 31b0 	ldr.w	r3, [r5, #432]	; 0x1b0
     626:	430b      	orrs	r3, r1
     628:	f8c5 31b0 	str.w	r3, [r5, #432]	; 0x1b0
	endpoint->first_transfer = transfer;
     62c:	6302      	str	r2, [r0, #48]	; 0x30
	endpoint->last_transfer = transfer;
     62e:	6342      	str	r2, [r0, #52]	; 0x34
	__enable_irq();
     630:	b662      	cpsie	i
}
     632:	bcf0      	pop	{r4, r5, r6, r7}
     634:	4770      	bx	lr
     636:	bf00      	nop
     638:	402e0000 	.word	0x402e0000
     63c:	e0001000 	.word	0xe0001000

00000640 <run_callbacks>:
	void (*callback_function)(transfer_t *completed_transfer);
	uint32_t unused1;
};*/

static void run_callbacks(endpoint_t *ep)
{
     640:	b570      	push	{r4, r5, r6, lr}
	//printf("run_callbacks\n");
	transfer_t *first = ep->first_transfer;
     642:	6b05      	ldr	r5, [r0, #48]	; 0x30
	if (first == NULL) return;
     644:	b19d      	cbz	r5, 66e <run_callbacks+0x2e>
     646:	4606      	mov	r6, r0
     648:	462a      	mov	r2, r5

	// count how many transfers are completed, then remove them from the endpoint's list
	uint32_t count = 0;
     64a:	2400      	movs	r4, #0
     64c:	e003      	b.n	656 <run_callbacks+0x16>
			//printf(" still active\n");
			ep->first_transfer = t;
			break;
		}
		count++;
		t = (transfer_t *)t->next;
     64e:	6812      	ldr	r2, [r2, #0]
		count++;
     650:	3401      	adds	r4, #1
		if ((uint32_t)t == 1) {
     652:	2a01      	cmp	r2, #1
     654:	d00c      	beq.n	670 <run_callbacks+0x30>
		if (t->status & (1<<7)) {
     656:	6853      	ldr	r3, [r2, #4]
     658:	f013 0380 	ands.w	r3, r3, #128	; 0x80
     65c:	d0f7      	beq.n	64e <run_callbacks+0xe>
			ep->first_transfer = t;
     65e:	6332      	str	r2, [r6, #48]	; 0x30
			ep->last_transfer = NULL;
			break;
		}
	}
	// do all the callbacks
	while (count) {
     660:	b12c      	cbz	r4, 66e <run_callbacks+0x2e>
		transfer_t *next = (transfer_t *)first->next;
     662:	4628      	mov	r0, r5
		ep->callback_function(first);
     664:	6bb3      	ldr	r3, [r6, #56]	; 0x38
		transfer_t *next = (transfer_t *)first->next;
     666:	682d      	ldr	r5, [r5, #0]
		ep->callback_function(first);
     668:	4798      	blx	r3
	while (count) {
     66a:	3c01      	subs	r4, #1
     66c:	d1f9      	bne.n	662 <run_callbacks+0x22>
		first = next;
		count--;
	}
}
     66e:	bd70      	pop	{r4, r5, r6, pc}
			ep->last_transfer = NULL;
     670:	e9c6 330c 	strd	r3, r3, [r6, #48]	; 0x30
			break;
     674:	e7f4      	b.n	660 <run_callbacks+0x20>
     676:	bf00      	nop

00000678 <endpoint0_transmit.constprop.0>:
static void endpoint0_transmit(const void *data, uint32_t len, int notify)
     678:	b430      	push	{r4, r5}
	if (len > 0) {
     67a:	b9d9      	cbnz	r1, 6b4 <endpoint0_transmit.constprop.0+0x3c>
     67c:	4c1f      	ldr	r4, [pc, #124]	; (6fc <endpoint0_transmit.constprop.0+0x84>)
	endpoint0_transfer_ack.next = 1;
     67e:	4b20      	ldr	r3, [pc, #128]	; (700 <endpoint0_transmit.constprop.0+0x88>)
	endpoint0_transfer_ack.pointer0 = 0;
     680:	2100      	movs	r1, #0
	USB1_ENDPTCOMPLETE = (1<<0) | (1<<16);
     682:	4a20      	ldr	r2, [pc, #128]	; (704 <endpoint0_transmit.constprop.0+0x8c>)
	endpoint0_transfer_ack.next = 1;
     684:	2501      	movs	r5, #1
	USB1_ENDPTCOMPLETE = (1<<0) | (1<<16);
     686:	f04f 1001 	mov.w	r0, #65537	; 0x10001
	endpoint0_transfer_ack.pointer0 = 0;
     68a:	6099      	str	r1, [r3, #8]
	endpoint0_transfer_ack.next = 1;
     68c:	601d      	str	r5, [r3, #0]
	endpoint_queue_head[0].status = 0;
     68e:	e9c4 3102 	strd	r3, r1, [r4, #8]
	endpoint0_transfer_ack.status = (1<<7) | (notify ? (1 << 15) : 0);
     692:	2480      	movs	r4, #128	; 0x80
     694:	605c      	str	r4, [r3, #4]
	USB1_ENDPTCOMPLETE = (1<<0) | (1<<16);
     696:	f8c2 01bc 	str.w	r0, [r2, #444]	; 0x1bc
	USB1_ENDPTPRIME |= (1<<0);
     69a:	f8d2 31b0 	ldr.w	r3, [r2, #432]	; 0x1b0
	endpoint0_notify_mask = (notify ? (1 << 0) : 0);
     69e:	481a      	ldr	r0, [pc, #104]	; (708 <endpoint0_transmit.constprop.0+0x90>)
	USB1_ENDPTPRIME |= (1<<0);
     6a0:	432b      	orrs	r3, r5
     6a2:	f8c2 31b0 	str.w	r3, [r2, #432]	; 0x1b0
	endpoint0_notify_mask = (notify ? (1 << 0) : 0);
     6a6:	6001      	str	r1, [r0, #0]
	while (USB1_ENDPTPRIME) ;
     6a8:	f8d2 31b0 	ldr.w	r3, [r2, #432]	; 0x1b0
     6ac:	2b00      	cmp	r3, #0
     6ae:	d1fb      	bne.n	6a8 <endpoint0_transmit.constprop.0+0x30>
}
     6b0:	bc30      	pop	{r4, r5}
     6b2:	4770      	bx	lr
		endpoint0_transfer_data.status = (len << 16) | (1<<7);
     6b4:	0409      	lsls	r1, r1, #16
		endpoint0_transfer_data.next = 1;
     6b6:	4b15      	ldr	r3, [pc, #84]	; (70c <endpoint0_transmit.constprop.0+0x94>)
		endpoint_queue_head[1].next = (uint32_t)&endpoint0_transfer_data;
     6b8:	4c10      	ldr	r4, [pc, #64]	; (6fc <endpoint0_transmit.constprop.0+0x84>)
		endpoint0_transfer_data.next = 1;
     6ba:	2501      	movs	r5, #1
		endpoint0_transfer_data.status = (len << 16) | (1<<7);
     6bc:	f041 0180 	orr.w	r1, r1, #128	; 0x80
		endpoint0_transfer_data.pointer0 = addr; // format: table 55-60, pg 3159
     6c0:	6098      	str	r0, [r3, #8]
		USB1_ENDPTPRIME |= (1<<16);
     6c2:	4a10      	ldr	r2, [pc, #64]	; (704 <endpoint0_transmit.constprop.0+0x8c>)
		endpoint0_transfer_data.status = (len << 16) | (1<<7);
     6c4:	6059      	str	r1, [r3, #4]
		endpoint0_transfer_data.pointer1 = addr + 4096;
     6c6:	f500 5180 	add.w	r1, r0, #4096	; 0x1000
		endpoint0_transfer_data.next = 1;
     6ca:	601d      	str	r5, [r3, #0]
		endpoint0_transfer_data.pointer1 = addr + 4096;
     6cc:	60d9      	str	r1, [r3, #12]
		endpoint0_transfer_data.pointer2 = addr + 8192;
     6ce:	f500 5100 	add.w	r1, r0, #8192	; 0x2000
		endpoint_queue_head[1].next = (uint32_t)&endpoint0_transfer_data;
     6d2:	64a3      	str	r3, [r4, #72]	; 0x48
		endpoint0_transfer_data.pointer2 = addr + 8192;
     6d4:	6119      	str	r1, [r3, #16]
		endpoint0_transfer_data.pointer3 = addr + 12288;
     6d6:	f500 5140 	add.w	r1, r0, #12288	; 0x3000
		endpoint0_transfer_data.pointer4 = addr + 16384;
     6da:	f500 4080 	add.w	r0, r0, #16384	; 0x4000
		endpoint0_transfer_data.pointer3 = addr + 12288;
     6de:	6159      	str	r1, [r3, #20]
		endpoint_queue_head[1].status = 0;
     6e0:	2100      	movs	r1, #0
		endpoint0_transfer_data.pointer4 = addr + 16384;
     6e2:	6198      	str	r0, [r3, #24]
		endpoint_queue_head[1].status = 0;
     6e4:	64e1      	str	r1, [r4, #76]	; 0x4c
		USB1_ENDPTPRIME |= (1<<16);
     6e6:	f8d2 31b0 	ldr.w	r3, [r2, #432]	; 0x1b0
     6ea:	f443 3380 	orr.w	r3, r3, #65536	; 0x10000
     6ee:	f8c2 31b0 	str.w	r3, [r2, #432]	; 0x1b0
		while (USB1_ENDPTPRIME) ;
     6f2:	f8d2 31b0 	ldr.w	r3, [r2, #432]	; 0x1b0
     6f6:	2b00      	cmp	r3, #0
     6f8:	d1fb      	bne.n	6f2 <endpoint0_transmit.constprop.0+0x7a>
     6fa:	e7c0      	b.n	67e <endpoint0_transmit.constprop.0+0x6>
     6fc:	20000000 	.word	0x20000000
     700:	20000ac0 	.word	0x20000ac0
     704:	402e0000 	.word	0x402e0000
     708:	20000cbc 	.word	0x20000cbc
     70c:	20000ae0 	.word	0x20000ae0

00000710 <usb_stop_sof_interrupts>:
	sof_usage &= ~(1 << interface);
     710:	4908      	ldr	r1, [pc, #32]	; (734 <usb_stop_sof_interrupts+0x24>)
     712:	2201      	movs	r2, #1
     714:	780b      	ldrb	r3, [r1, #0]
     716:	fa02 f000 	lsl.w	r0, r2, r0
     71a:	ea23 0000 	bic.w	r0, r3, r0
     71e:	7008      	strb	r0, [r1, #0]
	if (sof_usage == 0) {
     720:	b930      	cbnz	r0, 730 <usb_stop_sof_interrupts+0x20>
		USB1_USBINTR &= ~USB_USBINTR_SRE;
     722:	4a05      	ldr	r2, [pc, #20]	; (738 <usb_stop_sof_interrupts+0x28>)
     724:	f8d2 3148 	ldr.w	r3, [r2, #328]	; 0x148
     728:	f023 0380 	bic.w	r3, r3, #128	; 0x80
     72c:	f8c2 3148 	str.w	r3, [r2, #328]	; 0x148
}
     730:	4770      	bx	lr
     732:	bf00      	nop
     734:	20000d54 	.word	0x20000d54
     738:	402e0000 	.word	0x402e0000

0000073c <usb_isr>:
{
     73c:	e92d 4ff0 	stmdb	sp!, {r4, r5, r6, r7, r8, r9, sl, fp, lr}
	uint32_t status = USB1_USBSTS;
     740:	4c97      	ldr	r4, [pc, #604]	; (9a0 <usb_isr+0x264>)
{
     742:	b083      	sub	sp, #12
	uint32_t status = USB1_USBSTS;
     744:	f8d4 7144 	ldr.w	r7, [r4, #324]	; 0x144
	if (status & USB_USBSTS_UI) {
     748:	07fb      	lsls	r3, r7, #31
	USB1_USBSTS = status;
     74a:	f8c4 7144 	str.w	r7, [r4, #324]	; 0x144
	if (status & USB_USBSTS_UI) {
     74e:	d553      	bpl.n	7f8 <usb_isr+0xbc>
		uint32_t setupstatus = USB1_ENDPTSETUPSTAT;
     750:	f8d4 21ac 	ldr.w	r2, [r4, #428]	; 0x1ac
		while (setupstatus) {
     754:	2a00      	cmp	r2, #0
     756:	d04a      	beq.n	7ee <usb_isr+0xb2>
     758:	4e92      	ldr	r6, [pc, #584]	; (9a4 <usb_isr+0x268>)
     75a:	f8df a260 	ldr.w	sl, [pc, #608]	; 9bc <usb_isr+0x280>
		uint32_t addr = (uint32_t)data;
     75e:	f8df 9274 	ldr.w	r9, [pc, #628]	; 9d4 <usb_isr+0x298>
		endpoint_queue_head[2].pointer4 = 0xB8C6CF5D;
     762:	f8df b274 	ldr.w	fp, [pc, #628]	; 9d8 <usb_isr+0x29c>
			*((volatile uint32_t *)&USB1_ENDPTCTRL0 + endpoint) |= USB_ENDPTCTRL_RXS;
     766:	f8df 8274 	ldr.w	r8, [pc, #628]	; 9dc <usb_isr+0x2a0>
			USB1_ENDPTSETUPSTAT = setupstatus;
     76a:	f8c4 21ac 	str.w	r2, [r4, #428]	; 0x1ac
				s.word2 = endpoint_queue_head[0].setup1;
     76e:	e9d6 200a 	ldrd	r2, r0, [r6, #40]	; 0x28
				USB1_USBCMD |= USB_USBCMD_SUTW;
     772:	f8d4 3140 	ldr.w	r3, [r4, #320]	; 0x140
     776:	f443 5300 	orr.w	r3, r3, #8192	; 0x2000
     77a:	f8c4 3140 	str.w	r3, [r4, #320]	; 0x140
			} while (!(USB1_USBCMD & USB_USBCMD_SUTW));
     77e:	f8d4 3140 	ldr.w	r3, [r4, #320]	; 0x140
     782:	049d      	lsls	r5, r3, #18
     784:	d5f5      	bpl.n	772 <usb_isr+0x36>
			USB1_USBCMD &= ~USB_USBCMD_SUTW;
     786:	f8d4 3140 	ldr.w	r3, [r4, #320]	; 0x140
     78a:	f423 5300 	bic.w	r3, r3, #8192	; 0x2000
     78e:	f8c4 3140 	str.w	r3, [r4, #320]	; 0x140
			USB1_ENDPTFLUSH = (1<<16) | (1<<0); // page 3174
     792:	f04f 1301 	mov.w	r3, #65537	; 0x10001
     796:	f8c4 31b4 	str.w	r3, [r4, #436]	; 0x1b4
			while (USB1_ENDPTFLUSH & ((1<<16) | (1<<0))) ;
     79a:	f8d4 51b4 	ldr.w	r5, [r4, #436]	; 0x1b4
     79e:	f015 1501 	ands.w	r5, r5, #65537	; 0x10001
     7a2:	d1fa      	bne.n	79a <usb_isr+0x5e>
			endpoint0_notify_mask = 0;
     7a4:	b293      	uxth	r3, r2
	setup.bothwords = setupdata;
     7a6:	4684      	mov	ip, r0
			endpoint0_notify_mask = 0;
     7a8:	f8ca 5000 	str.w	r5, [sl]
	switch (setup.wRequestAndType) {
     7ac:	f5b3 6f08 	cmp.w	r3, #2176	; 0x880
     7b0:	f000 81cf 	beq.w	b52 <usb_isr+0x416>
     7b4:	f200 80db 	bhi.w	96e <usb_isr+0x232>
     7b8:	f240 3102 	movw	r1, #770	; 0x302
     7bc:	428b      	cmp	r3, r1
     7be:	f000 81e7 	beq.w	b90 <usb_isr+0x454>
     7c2:	f200 809a 	bhi.w	8fa <usb_isr+0x1be>
     7c6:	2b82      	cmp	r3, #130	; 0x82
     7c8:	f000 81cb 	beq.w	b62 <usb_isr+0x426>
     7cc:	f5b3 7f81 	cmp.w	r3, #258	; 0x102
     7d0:	f040 808a 	bne.w	8e8 <usb_isr+0x1ac>
		if (endpoint > 7) break;
     7d4:	f010 0f78 	tst.w	r0, #120	; 0x78
     7d8:	b283      	uxth	r3, r0
     7da:	f000 8203 	beq.w	be4 <usb_isr+0x4a8>
	USB1_ENDPTCTRL0 = 0x000010001; // stall
     7de:	f04f 1301 	mov.w	r3, #65537	; 0x10001
     7e2:	f8c4 31c0 	str.w	r3, [r4, #448]	; 0x1c0
			setupstatus = USB1_ENDPTSETUPSTAT; // page 3175
     7e6:	f8d4 21ac 	ldr.w	r2, [r4, #428]	; 0x1ac
		while (setupstatus) {
     7ea:	2a00      	cmp	r2, #0
     7ec:	d1bd      	bne.n	76a <usb_isr+0x2e>
		uint32_t completestatus = USB1_ENDPTCOMPLETE;
     7ee:	4a6c      	ldr	r2, [pc, #432]	; (9a0 <usb_isr+0x264>)
     7f0:	f8d2 31bc 	ldr.w	r3, [r2, #444]	; 0x1bc
		if (completestatus) {
     7f4:	2b00      	cmp	r3, #0
     7f6:	d142      	bne.n	87e <usb_isr+0x142>
	if (status & USB_USBSTS_URI) { // page 3164
     7f8:	067e      	lsls	r6, r7, #25
     7fa:	d516      	bpl.n	82a <usb_isr+0xee>
		USB1_ENDPTSETUPSTAT = USB1_ENDPTSETUPSTAT; // Clear all setup token semaphores
     7fc:	4b68      	ldr	r3, [pc, #416]	; (9a0 <usb_isr+0x264>)
     7fe:	f8d3 21ac 	ldr.w	r2, [r3, #428]	; 0x1ac
     802:	f8c3 21ac 	str.w	r2, [r3, #428]	; 0x1ac
		USB1_ENDPTCOMPLETE = USB1_ENDPTCOMPLETE; // Clear all the endpoint complete status
     806:	f8d3 21bc 	ldr.w	r2, [r3, #444]	; 0x1bc
     80a:	f8c3 21bc 	str.w	r2, [r3, #444]	; 0x1bc
		while (USB1_ENDPTPRIME != 0) ; // Wait for any endpoint priming
     80e:	f8d3 41b0 	ldr.w	r4, [r3, #432]	; 0x1b0
     812:	2c00      	cmp	r4, #0
     814:	d1fb      	bne.n	80e <usb_isr+0xd2>
		USB1_ENDPTFLUSH = 0xFFFFFFFF;  // Cancel all endpoint primed status
     816:	f04f 32ff 	mov.w	r2, #4294967295	; 0xffffffff
     81a:	f8c3 21b4 	str.w	r2, [r3, #436]	; 0x1b4
		if ((USB1_PORTSC1 & USB_PORTSC1_PR)) {
     81e:	f8d3 3184 	ldr.w	r3, [r3, #388]	; 0x184
		usb_serial_reset();
     822:	f000 fd1d 	bl	1260 <usb_serial_reset>
		endpointN_notify_mask = 0;
     826:	4b60      	ldr	r3, [pc, #384]	; (9a8 <usb_isr+0x26c>)
     828:	601c      	str	r4, [r3, #0]
	if (status & USB_USBSTS_TI0) {
     82a:	01fc      	lsls	r4, r7, #7
     82c:	d503      	bpl.n	836 <usb_isr+0xfa>
		if (usb_timer0_callback != NULL) usb_timer0_callback();
     82e:	4b5f      	ldr	r3, [pc, #380]	; (9ac <usb_isr+0x270>)
     830:	681b      	ldr	r3, [r3, #0]
     832:	b103      	cbz	r3, 836 <usb_isr+0xfa>
     834:	4798      	blx	r3
	if (status & USB_USBSTS_TI1) {
     836:	01b8      	lsls	r0, r7, #6
     838:	d503      	bpl.n	842 <usb_isr+0x106>
		if (usb_timer1_callback != NULL) usb_timer1_callback();
     83a:	4b5d      	ldr	r3, [pc, #372]	; (9b0 <usb_isr+0x274>)
     83c:	681b      	ldr	r3, [r3, #0]
     83e:	b103      	cbz	r3, 842 <usb_isr+0x106>
     840:	4798      	blx	r3
	if (status & USB_USBSTS_PCI) {
     842:	0779      	lsls	r1, r7, #29
     844:	d508      	bpl.n	858 <usb_isr+0x11c>
		if (USB1_PORTSC1 & USB_PORTSC1_HSP) {
     846:	4b56      	ldr	r3, [pc, #344]	; (9a0 <usb_isr+0x264>)
     848:	f8d3 3184 	ldr.w	r3, [r3, #388]	; 0x184
     84c:	f413 7300 	ands.w	r3, r3, #512	; 0x200
     850:	d047      	beq.n	8e2 <usb_isr+0x1a6>
			usb_high_speed = 1;
     852:	4b58      	ldr	r3, [pc, #352]	; (9b4 <usb_isr+0x278>)
     854:	2201      	movs	r2, #1
     856:	701a      	strb	r2, [r3, #0]
	if ((USB1_USBINTR & USB_USBINTR_SRE) && (status & USB_USBSTS_SRI)) {
     858:	4b51      	ldr	r3, [pc, #324]	; (9a0 <usb_isr+0x264>)
     85a:	f8d3 3148 	ldr.w	r3, [r3, #328]	; 0x148
     85e:	061a      	lsls	r2, r3, #24
     860:	d50a      	bpl.n	878 <usb_isr+0x13c>
     862:	063b      	lsls	r3, r7, #24
     864:	d508      	bpl.n	878 <usb_isr+0x13c>
		if (usb_reboot_timer) {
     866:	4a54      	ldr	r2, [pc, #336]	; (9b8 <usb_isr+0x27c>)
     868:	7813      	ldrb	r3, [r2, #0]
     86a:	b12b      	cbz	r3, 878 <usb_isr+0x13c>
			if (--usb_reboot_timer == 0) {
     86c:	3b01      	subs	r3, #1
     86e:	b2db      	uxtb	r3, r3
     870:	7013      	strb	r3, [r2, #0]
     872:	2b00      	cmp	r3, #0
     874:	f000 8272 	beq.w	d5c <usb_isr+0x620>
}
     878:	b003      	add	sp, #12
     87a:	e8bd 8ff0 	ldmia.w	sp!, {r4, r5, r6, r7, r8, r9, sl, fp, pc}
			if (completestatus & endpoint0_notify_mask) {
     87e:	494f      	ldr	r1, [pc, #316]	; (9bc <usb_isr+0x280>)
			USB1_ENDPTCOMPLETE = completestatus;
     880:	f8c2 31bc 	str.w	r3, [r2, #444]	; 0x1bc
			if (completestatus & endpoint0_notify_mask) {
     884:	6808      	ldr	r0, [r1, #0]
     886:	4203      	tst	r3, r0
     888:	f040 81d1 	bne.w	c2e <usb_isr+0x4f2>
			completestatus &= endpointN_notify_mask;
     88c:	4a46      	ldr	r2, [pc, #280]	; (9a8 <usb_isr+0x26c>)
     88e:	6814      	ldr	r4, [r2, #0]
			if (completestatus) {
     890:	401c      	ands	r4, r3
     892:	d0b1      	beq.n	7f8 <usb_isr+0xbc>
				while (tx) {
     894:	ea5f 4814 	movs.w	r8, r4, lsr #16
     898:	d010      	beq.n	8bc <usb_isr+0x180>
     89a:	4e42      	ldr	r6, [pc, #264]	; (9a4 <usb_isr+0x268>)
					tx &= ~(1<<p);
     89c:	f04f 0901 	mov.w	r9, #1
					int p=__builtin_ctz(tx);
     8a0:	fa98 f5a8 	rbit	r5, r8
     8a4:	fab5 f585 	clz	r5, r5
					run_callbacks(endpoint_queue_head + p * 2 + 1);
     8a8:	eb06 10c5 	add.w	r0, r6, r5, lsl #7
					tx &= ~(1<<p);
     8ac:	fa09 f505 	lsl.w	r5, r9, r5
					run_callbacks(endpoint_queue_head + p * 2 + 1);
     8b0:	3040      	adds	r0, #64	; 0x40
     8b2:	f7ff fec5 	bl	640 <run_callbacks>
				while (tx) {
     8b6:	ea38 0805 	bics.w	r8, r8, r5
     8ba:	d1f1      	bne.n	8a0 <usb_isr+0x164>
				uint32_t rx = completestatus & 0xffff;
     8bc:	b2a4      	uxth	r4, r4
				while(rx) {
     8be:	2c00      	cmp	r4, #0
     8c0:	d09a      	beq.n	7f8 <usb_isr+0xbc>
     8c2:	4e38      	ldr	r6, [pc, #224]	; (9a4 <usb_isr+0x268>)
					rx &= ~(1<<p);
     8c4:	f04f 0801 	mov.w	r8, #1
					int p=__builtin_ctz(rx);
     8c8:	fa94 f5a4 	rbit	r5, r4
     8cc:	fab5 f585 	clz	r5, r5
					run_callbacks(endpoint_queue_head + p * 2);
     8d0:	eb06 10c5 	add.w	r0, r6, r5, lsl #7
					rx &= ~(1<<p);
     8d4:	fa08 f505 	lsl.w	r5, r8, r5
					run_callbacks(endpoint_queue_head + p * 2);
     8d8:	f7ff feb2 	bl	640 <run_callbacks>
				while(rx) {
     8dc:	43ac      	bics	r4, r5
     8de:	d1f3      	bne.n	8c8 <usb_isr+0x18c>
     8e0:	e78a      	b.n	7f8 <usb_isr+0xbc>
			usb_high_speed = 0;
     8e2:	4a34      	ldr	r2, [pc, #208]	; (9b4 <usb_isr+0x278>)
     8e4:	7013      	strb	r3, [r2, #0]
     8e6:	e7b7      	b.n	858 <usb_isr+0x11c>
	switch (setup.wRequestAndType) {
     8e8:	2b80      	cmp	r3, #128	; 0x80
     8ea:	f47f af78 	bne.w	7de <usb_isr+0xa2>
		reply_buffer[0] = 0;
     8ee:	4834      	ldr	r0, [pc, #208]	; (9c0 <usb_isr+0x284>)
		endpoint0_transmit(reply_buffer, 2, 0);
     8f0:	2102      	movs	r1, #2
		reply_buffer[0] = 0;
     8f2:	8005      	strh	r5, [r0, #0]
		endpoint0_transmit(reply_buffer, 2, 0);
     8f4:	f7ff fec0 	bl	678 <endpoint0_transmit.constprop.0>
		return;
     8f8:	e775      	b.n	7e6 <usb_isr+0xaa>
	switch (setup.wRequestAndType) {
     8fa:	f5b3 6fa0 	cmp.w	r3, #1280	; 0x500
     8fe:	f000 810b 	beq.w	b18 <usb_isr+0x3dc>
     902:	f5a3 63d0 	sub.w	r3, r3, #1664	; 0x680
     906:	2b01      	cmp	r3, #1
     908:	f63f af69 	bhi.w	7de <usb_isr+0xa2>
		for (list = usb_descriptor_list; list->addr != NULL; list++) {
     90c:	4b2d      	ldr	r3, [pc, #180]	; (9c4 <usb_isr+0x288>)
     90e:	685d      	ldr	r5, [r3, #4]
     910:	2d00      	cmp	r5, #0
     912:	f43f af64 	beq.w	7de <usb_isr+0xa2>
			if (setup.wValue == list->wValue && setup.wIndex == list->wIndex) {
     916:	fa1f fc8c 	uxth.w	ip, ip
     91a:	ea4f 4e12 	mov.w	lr, r2, lsr #16
     91e:	e004      	b.n	92a <usb_isr+0x1ee>
		for (list = usb_descriptor_list; list->addr != NULL; list++) {
     920:	691d      	ldr	r5, [r3, #16]
     922:	330c      	adds	r3, #12
     924:	2d00      	cmp	r5, #0
     926:	f43f af5a 	beq.w	7de <usb_isr+0xa2>
			if (setup.wValue == list->wValue && setup.wIndex == list->wIndex) {
     92a:	881a      	ldrh	r2, [r3, #0]
     92c:	4572      	cmp	r2, lr
     92e:	d1f7      	bne.n	920 <usb_isr+0x1e4>
     930:	885a      	ldrh	r2, [r3, #2]
     932:	4562      	cmp	r2, ip
     934:	d1f4      	bne.n	920 <usb_isr+0x1e4>
				if ((setup.wValue >> 8) == 3) {
     936:	ea4f 221e 	mov.w	r2, lr, lsr #8
     93a:	2a03      	cmp	r2, #3
     93c:	f000 81a5 	beq.w	c8a <usb_isr+0x54e>
					datalen = list->length;
     940:	891a      	ldrh	r2, [r3, #8]
				if (datalen > setup.wLength) datalen = setup.wLength;
     942:	0c00      	lsrs	r0, r0, #16
     944:	4282      	cmp	r2, r0
     946:	bf28      	it	cs
     948:	4602      	movcs	r2, r0
				if (setup.wValue == 0x200) {
     94a:	f5be 7f00 	cmp.w	lr, #512	; 0x200
     94e:	f040 81a1 	bne.w	c94 <usb_isr+0x558>
					if (usb_high_speed) src = usb_config_descriptor_480;
     952:	4b18      	ldr	r3, [pc, #96]	; (9b4 <usb_isr+0x278>)
     954:	491c      	ldr	r1, [pc, #112]	; (9c8 <usb_isr+0x28c>)
     956:	7818      	ldrb	r0, [r3, #0]
     958:	4b1c      	ldr	r3, [pc, #112]	; (9cc <usb_isr+0x290>)
					memcpy(usb_descriptor_buffer, src, datalen);
     95a:	9201      	str	r2, [sp, #4]
     95c:	2800      	cmp	r0, #0
     95e:	bf18      	it	ne
     960:	4619      	movne	r1, r3
     962:	481b      	ldr	r0, [pc, #108]	; (9d0 <usb_isr+0x294>)
     964:	f000 ff2e 	bl	17c4 <memcpy>
     968:	4d19      	ldr	r5, [pc, #100]	; (9d0 <usb_isr+0x294>)
     96a:	9a01      	ldr	r2, [sp, #4]
     96c:	e1e1      	b.n	d32 <usb_isr+0x5f6>
	switch (setup.wRequestAndType) {
     96e:	f242 2121 	movw	r1, #8737	; 0x2221
     972:	428b      	cmp	r3, r1
     974:	d07c      	beq.n	a70 <usb_isr+0x334>
     976:	d933      	bls.n	9e0 <usb_isr+0x2a4>
     978:	f242 3121 	movw	r1, #8993	; 0x2321
     97c:	428b      	cmp	r3, r1
     97e:	f000 8081 	beq.w	a84 <usb_isr+0x348>
     982:	f64f 01c0 	movw	r1, #63680	; 0xf8c0
     986:	428b      	cmp	r3, r1
     988:	f47f af29 	bne.w	7de <usb_isr+0xa2>
		if ((setup.wIndex & 0xFF00) != 0) break; // 1=Genre, 4=Compat ID, 5=Properties
     98c:	f410 4f7f 	tst.w	r0, #65280	; 0xff00
     990:	b283      	uxth	r3, r0
     992:	f47f af24 	bne.w	7de <usb_isr+0xa2>
		setup.wIndex |= 0xEE00; // alter wIndex and treat as normal USB descriptor
     996:	f443 436e 	orr.w	r3, r3, #60928	; 0xee00
     99a:	f363 0c0f 	bfi	ip, r3, #0, #16
     99e:	e7b5      	b.n	90c <usb_isr+0x1d0>
     9a0:	402e0000 	.word	0x402e0000
     9a4:	20000000 	.word	0x20000000
     9a8:	20000cc0 	.word	0x20000cc0
     9ac:	20000d40 	.word	0x20000d40
     9b0:	20000d44 	.word	0x20000d44
     9b4:	20000d5a 	.word	0x20000d5a
     9b8:	20000d5b 	.word	0x20000d5b
     9bc:	20000cbc 	.word	0x20000cbc
     9c0:	20000cdc 	.word	0x20000cdc
     9c4:	2000051c 	.word	0x2000051c
     9c8:	60001b28 	.word	0x60001b28
     9cc:	60001b8c 	.word	0x60001b8c
     9d0:	20200000 	.word	0x20200000
     9d4:	20000cb4 	.word	0x20000cb4
     9d8:	b8c6cf5d 	.word	0xb8c6cf5d
     9dc:	402e01c0 	.word	0x402e01c0
	switch (setup.wRequestAndType) {
     9e0:	f5b3 6f10 	cmp.w	r3, #2304	; 0x900
     9e4:	d066      	beq.n	ab4 <usb_isr+0x378>
     9e6:	f242 0121 	movw	r1, #8225	; 0x2021
     9ea:	428b      	cmp	r3, r1
     9ec:	f47f aef7 	bne.w	7de <usb_isr+0xa2>
		if (setup.wLength != 7) break;
     9f0:	0c03      	lsrs	r3, r0, #16
     9f2:	2b07      	cmp	r3, #7
     9f4:	f47f aef3 	bne.w	7de <usb_isr+0xa2>
		endpoint0_transfer_data.next = 1;
     9f8:	4bb2      	ldr	r3, [pc, #712]	; (cc4 <usb_isr+0x588>)
		endpoint0_transfer_data.pointer1 = addr + 4096;
     9fa:	49b3      	ldr	r1, [pc, #716]	; (cc8 <usb_isr+0x58c>)
		endpoint_queue_head[0].status = 0;
     9fc:	60f5      	str	r5, [r6, #12]
		endpoint0_transfer_data.pointer1 = addr + 4096;
     9fe:	60d9      	str	r1, [r3, #12]
		endpoint0_setupdata.bothwords = setupdata;
     a00:	49b2      	ldr	r1, [pc, #712]	; (ccc <usb_isr+0x590>)
		endpoint_queue_head[0].next = (uint32_t)&endpoint0_transfer_data;
     a02:	60b3      	str	r3, [r6, #8]
		endpoint0_transfer_data.pointer0 = addr; // format: table 55-60, pg 3159
     a04:	f8c3 9008 	str.w	r9, [r3, #8]
		endpoint0_setupdata.bothwords = setupdata;
     a08:	e9c1 2000 	strd	r2, r0, [r1]
		endpoint0_transfer_data.next = 1;
     a0c:	2201      	movs	r2, #1
     a0e:	601a      	str	r2, [r3, #0]
		endpoint0_transfer_data.status = (len << 16) | (1<<7);
     a10:	4aaf      	ldr	r2, [pc, #700]	; (cd0 <usb_isr+0x594>)
     a12:	605a      	str	r2, [r3, #4]
		endpoint0_transfer_data.pointer2 = addr + 8192;
     a14:	4aaf      	ldr	r2, [pc, #700]	; (cd4 <usb_isr+0x598>)
     a16:	611a      	str	r2, [r3, #16]
		USB1_ENDPTPRIME |= (1<<0);
     a18:	f8d4 11b0 	ldr.w	r1, [r4, #432]	; 0x1b0
     a1c:	f041 0101 	orr.w	r1, r1, #1
     a20:	f8c4 11b0 	str.w	r1, [r4, #432]	; 0x1b0
		endpoint0_transfer_data.pointer3 = addr + 12288;
     a24:	f502 5180 	add.w	r1, r2, #4096	; 0x1000
		endpoint0_transfer_data.pointer4 = addr + 16384;
     a28:	f502 5200 	add.w	r2, r2, #8192	; 0x2000
		endpoint0_transfer_data.pointer3 = addr + 12288;
     a2c:	6159      	str	r1, [r3, #20]
		endpoint0_transfer_data.pointer4 = addr + 16384;
     a2e:	619a      	str	r2, [r3, #24]
		while (USB1_ENDPTPRIME) ;
     a30:	f8d4 31b0 	ldr.w	r3, [r4, #432]	; 0x1b0
     a34:	2b00      	cmp	r3, #0
     a36:	d1fb      	bne.n	a30 <usb_isr+0x2f4>
	endpoint0_transfer_ack.next = 1;
     a38:	4aa7      	ldr	r2, [pc, #668]	; (cd8 <usb_isr+0x59c>)
	endpoint_queue_head[1].status = 0;
     a3a:	64f3      	str	r3, [r6, #76]	; 0x4c
	endpoint0_transfer_ack.pointer0 = 0;
     a3c:	6093      	str	r3, [r2, #8]
	endpoint0_transfer_ack.next = 1;
     a3e:	2301      	movs	r3, #1
	endpoint_queue_head[1].next = (uint32_t)&endpoint0_transfer_ack;
     a40:	64b2      	str	r2, [r6, #72]	; 0x48
	endpoint0_transfer_ack.next = 1;
     a42:	6013      	str	r3, [r2, #0]
	endpoint0_transfer_ack.status = (1<<7) | (notify ? (1 << 15) : 0);
     a44:	f248 0380 	movw	r3, #32896	; 0x8080
     a48:	6053      	str	r3, [r2, #4]
	USB1_ENDPTCOMPLETE = (1<<0) | (1<<16);
     a4a:	f04f 1301 	mov.w	r3, #65537	; 0x10001
     a4e:	f8c4 31bc 	str.w	r3, [r4, #444]	; 0x1bc
	USB1_ENDPTPRIME |= (1<<16);
     a52:	f8d4 31b0 	ldr.w	r3, [r4, #432]	; 0x1b0
     a56:	f443 3380 	orr.w	r3, r3, #65536	; 0x10000
     a5a:	f8c4 31b0 	str.w	r3, [r4, #432]	; 0x1b0
	endpoint0_notify_mask = (notify ? (1 << 16) : 0);
     a5e:	f44f 3380 	mov.w	r3, #65536	; 0x10000
     a62:	f8ca 3000 	str.w	r3, [sl]
	while (USB1_ENDPTPRIME) ;
     a66:	f8d4 31b0 	ldr.w	r3, [r4, #432]	; 0x1b0
     a6a:	2b00      	cmp	r3, #0
     a6c:	d1fb      	bne.n	a66 <usb_isr+0x32a>
     a6e:	e6ba      	b.n	7e6 <usb_isr+0xaa>
		if (setup.wIndex == CDC_STATUS_INTERFACE) {
     a70:	b280      	uxth	r0, r0
     a72:	b938      	cbnz	r0, a84 <usb_isr+0x348>
			usb_cdc_line_rtsdtr_millis = systick_millis_count;
     a74:	4b99      	ldr	r3, [pc, #612]	; (cdc <usb_isr+0x5a0>)
			usb_cdc_line_rtsdtr = setup.wValue;
     a76:	f3c2 4207 	ubfx	r2, r2, #16, #8
			usb_cdc_line_rtsdtr_millis = systick_millis_count;
     a7a:	6819      	ldr	r1, [r3, #0]
     a7c:	4b98      	ldr	r3, [pc, #608]	; (ce0 <usb_isr+0x5a4>)
     a7e:	6019      	str	r1, [r3, #0]
			usb_cdc_line_rtsdtr = setup.wValue;
     a80:	4b98      	ldr	r3, [pc, #608]	; (ce4 <usb_isr+0x5a8>)
     a82:	701a      	strb	r2, [r3, #0]
	endpoint0_transfer_ack.next = 1;
     a84:	4b94      	ldr	r3, [pc, #592]	; (cd8 <usb_isr+0x59c>)
	endpoint0_transfer_ack.pointer0 = 0;
     a86:	2200      	movs	r2, #0
     a88:	609a      	str	r2, [r3, #8]
	endpoint_queue_head[1].status = 0;
     a8a:	64f2      	str	r2, [r6, #76]	; 0x4c
	endpoint0_transfer_ack.next = 1;
     a8c:	2201      	movs	r2, #1
	endpoint_queue_head[1].next = (uint32_t)&endpoint0_transfer_ack;
     a8e:	64b3      	str	r3, [r6, #72]	; 0x48
	endpoint0_transfer_ack.next = 1;
     a90:	601a      	str	r2, [r3, #0]
	endpoint0_transfer_ack.status = (1<<7) | (notify ? (1 << 15) : 0);
     a92:	2280      	movs	r2, #128	; 0x80
     a94:	605a      	str	r2, [r3, #4]
	USB1_ENDPTCOMPLETE = (1<<0) | (1<<16);
     a96:	f04f 1301 	mov.w	r3, #65537	; 0x10001
     a9a:	f8c4 31bc 	str.w	r3, [r4, #444]	; 0x1bc
	USB1_ENDPTPRIME |= (1<<16);
     a9e:	f8d4 31b0 	ldr.w	r3, [r4, #432]	; 0x1b0
     aa2:	f443 3380 	orr.w	r3, r3, #65536	; 0x10000
     aa6:	f8c4 31b0 	str.w	r3, [r4, #432]	; 0x1b0
	while (USB1_ENDPTPRIME) ;
     aaa:	f8d4 31b0 	ldr.w	r3, [r4, #432]	; 0x1b0
     aae:	2b00      	cmp	r3, #0
     ab0:	d1fb      	bne.n	aaa <usb_isr+0x36e>
     ab2:	e698      	b.n	7e6 <usb_isr+0xaa>
		usb_configuration = setup.wValue;
     ab4:	f3c2 4207 	ubfx	r2, r2, #16, #8
     ab8:	4b8b      	ldr	r3, [pc, #556]	; (ce8 <usb_isr+0x5ac>)
     aba:	701a      	strb	r2, [r3, #0]
		USB1_ENDPTCTRL2 = ENDPOINT2_CONFIG;
     abc:	4b8b      	ldr	r3, [pc, #556]	; (cec <usb_isr+0x5b0>)
     abe:	f8c4 31c8 	str.w	r3, [r4, #456]	; 0x1c8
		USB1_ENDPTCTRL3 = ENDPOINT3_CONFIG;
     ac2:	4b8b      	ldr	r3, [pc, #556]	; (cf0 <usb_isr+0x5b4>)
     ac4:	f8c4 31cc 	str.w	r3, [r4, #460]	; 0x1cc
		USB1_ENDPTCTRL4 = ENDPOINT4_CONFIG;
     ac8:	4b8a      	ldr	r3, [pc, #552]	; (cf4 <usb_isr+0x5b8>)
     aca:	f8c4 31d0 	str.w	r3, [r4, #464]	; 0x1d0
		usb_serial_configure();
     ace:	f000 fbc9 	bl	1264 <usb_serial_configure>
		memset(endpoint_queue_head + 2, 0, sizeof(endpoint_t) * 2);
     ad2:	2280      	movs	r2, #128	; 0x80
     ad4:	4629      	mov	r1, r5
     ad6:	4888      	ldr	r0, [pc, #544]	; (cf8 <usb_isr+0x5bc>)
     ad8:	f001 f80a 	bl	1af0 <memset>
		endpoint_queue_head[3].pointer4 = 0x74D59319;
     adc:	4b87      	ldr	r3, [pc, #540]	; (cfc <usb_isr+0x5c0>)
	endpoint0_transfer_ack.status = (1<<7) | (notify ? (1 << 15) : 0);
     ade:	2280      	movs	r2, #128	; 0x80
		endpoint_queue_head[2].pointer4 = 0xB8C6CF5D;
     ae0:	f8c6 b0a0 	str.w	fp, [r6, #160]	; 0xa0
		endpoint_queue_head[3].pointer4 = 0x74D59319;
     ae4:	f8c6 30e0 	str.w	r3, [r6, #224]	; 0xe0
	endpoint0_transfer_ack.next = 1;
     ae8:	4b7b      	ldr	r3, [pc, #492]	; (cd8 <usb_isr+0x59c>)
	endpoint_queue_head[1].status = 0;
     aea:	64f5      	str	r5, [r6, #76]	; 0x4c
	endpoint0_transfer_ack.status = (1<<7) | (notify ? (1 << 15) : 0);
     aec:	605a      	str	r2, [r3, #4]
	endpoint0_transfer_ack.next = 1;
     aee:	2201      	movs	r2, #1
	endpoint_queue_head[1].next = (uint32_t)&endpoint0_transfer_ack;
     af0:	64b3      	str	r3, [r6, #72]	; 0x48
	endpoint0_transfer_ack.pointer0 = 0;
     af2:	609d      	str	r5, [r3, #8]
	endpoint0_transfer_ack.next = 1;
     af4:	601a      	str	r2, [r3, #0]
	USB1_ENDPTCOMPLETE = (1<<0) | (1<<16);
     af6:	f04f 1301 	mov.w	r3, #65537	; 0x10001
     afa:	f8c4 31bc 	str.w	r3, [r4, #444]	; 0x1bc
	USB1_ENDPTPRIME |= (1<<16);
     afe:	f8d4 31b0 	ldr.w	r3, [r4, #432]	; 0x1b0
     b02:	f443 3380 	orr.w	r3, r3, #65536	; 0x10000
     b06:	f8c4 31b0 	str.w	r3, [r4, #432]	; 0x1b0
	endpoint0_notify_mask = (notify ? (1 << 16) : 0);
     b0a:	f8ca 5000 	str.w	r5, [sl]
	while (USB1_ENDPTPRIME) ;
     b0e:	f8d4 31b0 	ldr.w	r3, [r4, #432]	; 0x1b0
     b12:	2b00      	cmp	r3, #0
     b14:	d1fb      	bne.n	b0e <usb_isr+0x3d2>
     b16:	e666      	b.n	7e6 <usb_isr+0xaa>
	endpoint0_transfer_ack.next = 1;
     b18:	4b6f      	ldr	r3, [pc, #444]	; (cd8 <usb_isr+0x59c>)
     b1a:	2101      	movs	r1, #1
	endpoint_queue_head[1].status = 0;
     b1c:	64f5      	str	r5, [r6, #76]	; 0x4c
	endpoint0_transfer_ack.next = 1;
     b1e:	6019      	str	r1, [r3, #0]
	endpoint0_transfer_ack.status = (1<<7) | (notify ? (1 << 15) : 0);
     b20:	2180      	movs	r1, #128	; 0x80
	endpoint0_transfer_ack.pointer0 = 0;
     b22:	609d      	str	r5, [r3, #8]
	endpoint_queue_head[1].next = (uint32_t)&endpoint0_transfer_ack;
     b24:	64b3      	str	r3, [r6, #72]	; 0x48
	endpoint0_transfer_ack.status = (1<<7) | (notify ? (1 << 15) : 0);
     b26:	6059      	str	r1, [r3, #4]
	USB1_ENDPTCOMPLETE = (1<<0) | (1<<16);
     b28:	f04f 1301 	mov.w	r3, #65537	; 0x10001
     b2c:	f8c4 31bc 	str.w	r3, [r4, #444]	; 0x1bc
	USB1_ENDPTPRIME |= (1<<16);
     b30:	f8d4 31b0 	ldr.w	r3, [r4, #432]	; 0x1b0
     b34:	f443 3380 	orr.w	r3, r3, #65536	; 0x10000
     b38:	f8c4 31b0 	str.w	r3, [r4, #432]	; 0x1b0
	while (USB1_ENDPTPRIME) ;
     b3c:	f8d4 31b0 	ldr.w	r3, [r4, #432]	; 0x1b0
     b40:	2b00      	cmp	r3, #0
     b42:	d1fb      	bne.n	b3c <usb_isr+0x400>
		USB1_DEVICEADDR = USB_DEVICEADDR_USBADR(setup.wValue) | USB_DEVICEADDR_USBADRA;
     b44:	0c13      	lsrs	r3, r2, #16
     b46:	065b      	lsls	r3, r3, #25
     b48:	f043 7380 	orr.w	r3, r3, #16777216	; 0x1000000
     b4c:	f8c4 3154 	str.w	r3, [r4, #340]	; 0x154
		return;
     b50:	e649      	b.n	7e6 <usb_isr+0xaa>
		reply_buffer[0] = usb_configuration;
     b52:	4b65      	ldr	r3, [pc, #404]	; (ce8 <usb_isr+0x5ac>)
		endpoint0_transmit(reply_buffer, 1, 0);
     b54:	2101      	movs	r1, #1
		reply_buffer[0] = usb_configuration;
     b56:	486a      	ldr	r0, [pc, #424]	; (d00 <usb_isr+0x5c4>)
     b58:	781b      	ldrb	r3, [r3, #0]
     b5a:	7003      	strb	r3, [r0, #0]
		endpoint0_transmit(reply_buffer, 1, 0);
     b5c:	f7ff fd8c 	bl	678 <endpoint0_transmit.constprop.0>
		return;
     b60:	e641      	b.n	7e6 <usb_isr+0xaa>
		endpoint = setup.wIndex & 0x7F;
     b62:	b283      	uxth	r3, r0
		if (endpoint > 7) break;
     b64:	f010 0078 	ands.w	r0, r0, #120	; 0x78
     b68:	f47f ae39 	bne.w	7de <usb_isr+0xa2>
		endpoint = setup.wIndex & 0x7F;
     b6c:	f003 027f 	and.w	r2, r3, #127	; 0x7f
		ctrl = *((uint32_t *)&USB1_ENDPTCTRL0 + endpoint);
     b70:	f858 1022 	ldr.w	r1, [r8, r2, lsl #2]
		reply_buffer[0] = 0;
     b74:	4a62      	ldr	r2, [pc, #392]	; (d00 <usb_isr+0x5c4>)
     b76:	8010      	strh	r0, [r2, #0]
		if ((dir && (ctrl & USB_ENDPTCTRL_TXS)) || (!dir && (ctrl & USB_ENDPTCTRL_RXS))) {
     b78:	0618      	lsls	r0, r3, #24
     b7a:	f100 809e 	bmi.w	cba <usb_isr+0x57e>
     b7e:	07cb      	lsls	r3, r1, #31
     b80:	d501      	bpl.n	b86 <usb_isr+0x44a>
			reply_buffer[0] = 1;
     b82:	2301      	movs	r3, #1
     b84:	7013      	strb	r3, [r2, #0]
		endpoint0_transmit(reply_buffer, 2, 0);
     b86:	2102      	movs	r1, #2
     b88:	485d      	ldr	r0, [pc, #372]	; (d00 <usb_isr+0x5c4>)
     b8a:	f7ff fd75 	bl	678 <endpoint0_transmit.constprop.0>
		return;
     b8e:	e62a      	b.n	7e6 <usb_isr+0xaa>
		if (endpoint > 7) break;
     b90:	f010 0f78 	tst.w	r0, #120	; 0x78
     b94:	b283      	uxth	r3, r0
     b96:	f47f ae22 	bne.w	7de <usb_isr+0xa2>
		endpoint = setup.wIndex & 0x7F;
     b9a:	f003 027f 	and.w	r2, r3, #127	; 0x7f
		if (dir) {
     b9e:	f013 0f80 	tst.w	r3, #128	; 0x80
			*((volatile uint32_t *)&USB1_ENDPTCTRL0 + endpoint) |= USB_ENDPTCTRL_TXS;
     ba2:	f858 3022 	ldr.w	r3, [r8, r2, lsl #2]
     ba6:	bf14      	ite	ne
     ba8:	f443 3380 	orrne.w	r3, r3, #65536	; 0x10000
			*((volatile uint32_t *)&USB1_ENDPTCTRL0 + endpoint) |= USB_ENDPTCTRL_RXS;
     bac:	f043 0301 	orreq.w	r3, r3, #1
     bb0:	f848 3022 	str.w	r3, [r8, r2, lsl #2]
	endpoint0_transfer_ack.pointer0 = 0;
     bb4:	2200      	movs	r2, #0
	endpoint0_transfer_ack.next = 1;
     bb6:	4b48      	ldr	r3, [pc, #288]	; (cd8 <usb_isr+0x59c>)
	endpoint_queue_head[1].status = 0;
     bb8:	64f2      	str	r2, [r6, #76]	; 0x4c
	endpoint0_transfer_ack.pointer0 = 0;
     bba:	609a      	str	r2, [r3, #8]
	endpoint0_transfer_ack.next = 1;
     bbc:	2201      	movs	r2, #1
	endpoint_queue_head[1].next = (uint32_t)&endpoint0_transfer_ack;
     bbe:	64b3      	str	r3, [r6, #72]	; 0x48
	endpoint0_transfer_ack.next = 1;
     bc0:	601a      	str	r2, [r3, #0]
	endpoint0_transfer_ack.status = (1<<7) | (notify ? (1 << 15) : 0);
     bc2:	2280      	movs	r2, #128	; 0x80
     bc4:	605a      	str	r2, [r3, #4]
	USB1_ENDPTCOMPLETE = (1<<0) | (1<<16);
     bc6:	f04f 1301 	mov.w	r3, #65537	; 0x10001
     bca:	f8c4 31bc 	str.w	r3, [r4, #444]	; 0x1bc
	USB1_ENDPTPRIME |= (1<<16);
     bce:	f8d4 31b0 	ldr.w	r3, [r4, #432]	; 0x1b0
     bd2:	f443 3380 	orr.w	r3, r3, #65536	; 0x10000
     bd6:	f8c4 31b0 	str.w	r3, [r4, #432]	; 0x1b0
	while (USB1_ENDPTPRIME) ;
     bda:	f8d4 31b0 	ldr.w	r3, [r4, #432]	; 0x1b0
     bde:	2b00      	cmp	r3, #0
     be0:	d1fb      	bne.n	bda <usb_isr+0x49e>
     be2:	e600      	b.n	7e6 <usb_isr+0xaa>
		endpoint = setup.wIndex & 0x7F;
     be4:	f003 027f 	and.w	r2, r3, #127	; 0x7f
		if (dir) {
     be8:	f013 0f80 	tst.w	r3, #128	; 0x80
			*((volatile uint32_t *)&USB1_ENDPTCTRL0 + endpoint) &= ~USB_ENDPTCTRL_TXS;
     bec:	f858 3022 	ldr.w	r3, [r8, r2, lsl #2]
     bf0:	bf14      	ite	ne
     bf2:	f423 3380 	bicne.w	r3, r3, #65536	; 0x10000
			*((volatile uint32_t *)&USB1_ENDPTCTRL0 + endpoint) &= ~USB_ENDPTCTRL_RXS;
     bf6:	f023 0301 	biceq.w	r3, r3, #1
     bfa:	f848 3022 	str.w	r3, [r8, r2, lsl #2]
	endpoint0_transfer_ack.pointer0 = 0;
     bfe:	2200      	movs	r2, #0
	endpoint0_transfer_ack.next = 1;
     c00:	4b35      	ldr	r3, [pc, #212]	; (cd8 <usb_isr+0x59c>)
	endpoint_queue_head[1].status = 0;
     c02:	64f2      	str	r2, [r6, #76]	; 0x4c
	endpoint0_transfer_ack.pointer0 = 0;
     c04:	609a      	str	r2, [r3, #8]
	endpoint0_transfer_ack.next = 1;
     c06:	2201      	movs	r2, #1
	endpoint_queue_head[1].next = (uint32_t)&endpoint0_transfer_ack;
     c08:	64b3      	str	r3, [r6, #72]	; 0x48
	endpoint0_transfer_ack.next = 1;
     c0a:	601a      	str	r2, [r3, #0]
	endpoint0_transfer_ack.status = (1<<7) | (notify ? (1 << 15) : 0);
     c0c:	2280      	movs	r2, #128	; 0x80
     c0e:	605a      	str	r2, [r3, #4]
	USB1_ENDPTCOMPLETE = (1<<0) | (1<<16);
     c10:	f04f 1301 	mov.w	r3, #65537	; 0x10001
     c14:	f8c4 31bc 	str.w	r3, [r4, #444]	; 0x1bc
	USB1_ENDPTPRIME |= (1<<16);
     c18:	f8d4 31b0 	ldr.w	r3, [r4, #432]	; 0x1b0
     c1c:	f443 3380 	orr.w	r3, r3, #65536	; 0x10000
     c20:	f8c4 31b0 	str.w	r3, [r4, #432]	; 0x1b0
	while (USB1_ENDPTPRIME) ;
     c24:	f8d4 31b0 	ldr.w	r3, [r4, #432]	; 0x1b0
     c28:	2b00      	cmp	r3, #0
     c2a:	d1fb      	bne.n	c24 <usb_isr+0x4e8>
     c2c:	e5db      	b.n	7e6 <usb_isr+0xaa>
				endpoint0_notify_mask = 0;
     c2e:	2000      	movs	r0, #0
     c30:	6008      	str	r0, [r1, #0]
	setup.bothwords = endpoint0_setupdata.bothwords;
     c32:	4926      	ldr	r1, [pc, #152]	; (ccc <usb_isr+0x590>)
	if (setup.wRequestAndType == 0x2021 && setup.wIndex == CDC_STATUS_INTERFACE) {
     c34:	880c      	ldrh	r4, [r1, #0]
	setup.bothwords = endpoint0_setupdata.bothwords;
     c36:	6848      	ldr	r0, [r1, #4]
	if (setup.wRequestAndType == 0x2021 && setup.wIndex == CDC_STATUS_INTERFACE) {
     c38:	f242 0121 	movw	r1, #8225	; 0x2021
     c3c:	428c      	cmp	r4, r1
     c3e:	f47f ae25 	bne.w	88c <usb_isr+0x150>
     c42:	b280      	uxth	r0, r0
     c44:	2800      	cmp	r0, #0
     c46:	f47f ae21 	bne.w	88c <usb_isr+0x150>
		memcpy(usb_cdc_line_coding, endpoint0_buffer, 7);
     c4a:	492e      	ldr	r1, [pc, #184]	; (d04 <usb_isr+0x5c8>)
     c4c:	4c2e      	ldr	r4, [pc, #184]	; (d08 <usb_isr+0x5cc>)
     c4e:	c903      	ldmia	r1, {r0, r1}
     c50:	80a1      	strh	r1, [r4, #4]
		if (usb_cdc_line_coding[0] == 134) {
     c52:	2886      	cmp	r0, #134	; 0x86
		memcpy(usb_cdc_line_coding, endpoint0_buffer, 7);
     c54:	ea4f 4111 	mov.w	r1, r1, lsr #16
     c58:	6020      	str	r0, [r4, #0]
     c5a:	71a1      	strb	r1, [r4, #6]
		if (usb_cdc_line_coding[0] == 134) {
     c5c:	f47f ae16 	bne.w	88c <usb_isr+0x150>
	__disable_irq();
     c60:	b672      	cpsid	i
	sof_usage |= (1 << interface);
     c62:	482a      	ldr	r0, [pc, #168]	; (d0c <usb_isr+0x5d0>)
     c64:	7801      	ldrb	r1, [r0, #0]
     c66:	f041 0108 	orr.w	r1, r1, #8
     c6a:	7001      	strb	r1, [r0, #0]
	uint32_t intr = USB1_USBINTR;
     c6c:	f8d2 1148 	ldr.w	r1, [r2, #328]	; 0x148
	if (!(intr & USB_USBINTR_SRE)) {
     c70:	060d      	lsls	r5, r1, #24
     c72:	d405      	bmi.n	c80 <usb_isr+0x544>
		USB1_USBSTS = USB_USBSTS_SRI; // clear prior SOF before SOF IRQ enable
     c74:	2080      	movs	r0, #128	; 0x80
		USB1_USBINTR = intr | USB_USBINTR_SRE;
     c76:	4301      	orrs	r1, r0
		USB1_USBSTS = USB_USBSTS_SRI; // clear prior SOF before SOF IRQ enable
     c78:	f8c2 0144 	str.w	r0, [r2, #324]	; 0x144
		USB1_USBINTR = intr | USB_USBINTR_SRE;
     c7c:	f8c2 1148 	str.w	r1, [r2, #328]	; 0x148
	__enable_irq();
     c80:	b662      	cpsie	i
			usb_reboot_timer = 80; // TODO: 10 if only 12 Mbit/sec
     c82:	4a23      	ldr	r2, [pc, #140]	; (d10 <usb_isr+0x5d4>)
     c84:	2150      	movs	r1, #80	; 0x50
     c86:	7011      	strb	r1, [r2, #0]
     c88:	e600      	b.n	88c <usb_isr+0x150>
				if (datalen > setup.wLength) datalen = setup.wLength;
     c8a:	0c00      	lsrs	r0, r0, #16
					datalen = *(list->addr);
     c8c:	782a      	ldrb	r2, [r5, #0]
     c8e:	4282      	cmp	r2, r0
     c90:	bf28      	it	cs
     c92:	4602      	movcs	r2, r0
				} else if (setup.wValue == 0x700) {
     c94:	f5be 6fe0 	cmp.w	lr, #1792	; 0x700
     c98:	d144      	bne.n	d24 <usb_isr+0x5e8>
					if (usb_high_speed) src = usb_config_descriptor_12;
     c9a:	4b1e      	ldr	r3, [pc, #120]	; (d14 <usb_isr+0x5d8>)
					memcpy(usb_descriptor_buffer, src, datalen);
     c9c:	4d1e      	ldr	r5, [pc, #120]	; (d18 <usb_isr+0x5dc>)
					if (usb_high_speed) src = usb_config_descriptor_12;
     c9e:	7818      	ldrb	r0, [r3, #0]
     ca0:	491e      	ldr	r1, [pc, #120]	; (d1c <usb_isr+0x5e0>)
     ca2:	4b1f      	ldr	r3, [pc, #124]	; (d20 <usb_isr+0x5e4>)
					memcpy(usb_descriptor_buffer, src, datalen);
     ca4:	9201      	str	r2, [sp, #4]
     ca6:	2800      	cmp	r0, #0
     ca8:	bf18      	it	ne
     caa:	4619      	movne	r1, r3
     cac:	4628      	mov	r0, r5
     cae:	f000 fd89 	bl	17c4 <memcpy>
					usb_descriptor_buffer[1] = 7;
     cb2:	2307      	movs	r3, #7
     cb4:	706b      	strb	r3, [r5, #1]
     cb6:	9a01      	ldr	r2, [sp, #4]
     cb8:	e03b      	b.n	d32 <usb_isr+0x5f6>
		if ((dir && (ctrl & USB_ENDPTCTRL_TXS)) || (!dir && (ctrl & USB_ENDPTCTRL_RXS))) {
     cba:	03c9      	lsls	r1, r1, #15
     cbc:	f53f af61 	bmi.w	b82 <usb_isr+0x446>
     cc0:	e761      	b.n	b86 <usb_isr+0x44a>
     cc2:	bf00      	nop
     cc4:	20000ae0 	.word	0x20000ae0
     cc8:	20001cb4 	.word	0x20001cb4
     ccc:	20000c80 	.word	0x20000c80
     cd0:	00070080 	.word	0x00070080
     cd4:	20002cb4 	.word	0x20002cb4
     cd8:	20000ac0 	.word	0x20000ac0
     cdc:	20000d2c 	.word	0x20000d2c
     ce0:	20000d3c 	.word	0x20000d3c
     ce4:	20000d58 	.word	0x20000d58
     ce8:	20000d59 	.word	0x20000d59
     cec:	00cc0002 	.word	0x00cc0002
     cf0:	000200c8 	.word	0x000200c8
     cf4:	00c80002 	.word	0x00c80002
     cf8:	20000080 	.word	0x20000080
     cfc:	74d59319 	.word	0x74d59319
     d00:	20000cdc 	.word	0x20000cdc
     d04:	20000cb4 	.word	0x20000cb4
     d08:	20000d34 	.word	0x20000d34
     d0c:	20000d54 	.word	0x20000d54
     d10:	20000d5b 	.word	0x20000d5b
     d14:	20000d5a 	.word	0x20000d5a
     d18:	20200000 	.word	0x20200000
     d1c:	60001b8c 	.word	0x60001b8c
     d20:	60001b28 	.word	0x60001b28
					memcpy(usb_descriptor_buffer, list->addr, datalen);
     d24:	4629      	mov	r1, r5
     d26:	4d10      	ldr	r5, [pc, #64]	; (d68 <usb_isr+0x62c>)
     d28:	9201      	str	r2, [sp, #4]
     d2a:	4628      	mov	r0, r5
     d2c:	f000 fd4a 	bl	17c4 <memcpy>
     d30:	9a01      	ldr	r2, [sp, #4]
	uint32_t location = (uint32_t)addr & 0xFFFFFFE0;
     d32:	f025 031f 	bic.w	r3, r5, #31
	uint32_t end_addr = (uint32_t)addr + size;
     d36:	4415      	add	r5, r2
	asm("dsb");
     d38:	f3bf 8f4f 	dsb	sy
		SCB_CACHE_DCCIMVAC = location;
     d3c:	f04f 21e0 	mov.w	r1, #3758153728	; 0xe000e000
     d40:	f8c1 3f70 	str.w	r3, [r1, #3952]	; 0xf70
		location += 32;
     d44:	3320      	adds	r3, #32
	} while (location < end_addr);
     d46:	429d      	cmp	r5, r3
     d48:	d8fa      	bhi.n	d40 <usb_isr+0x604>
	asm("dsb");
     d4a:	f3bf 8f4f 	dsb	sy
	asm("isb");
     d4e:	f3bf 8f6f 	isb	sy
				endpoint0_transmit(usb_descriptor_buffer, datalen, 0);
     d52:	4805      	ldr	r0, [pc, #20]	; (d68 <usb_isr+0x62c>)
     d54:	4611      	mov	r1, r2
     d56:	f7ff fc8f 	bl	678 <endpoint0_transmit.constprop.0>
				return;
     d5a:	e544      	b.n	7e6 <usb_isr+0xaa>
				usb_stop_sof_interrupts(NUM_INTERFACE);
     d5c:	2003      	movs	r0, #3
     d5e:	f7ff fcd7 	bl	710 <usb_stop_sof_interrupts>
				_reboot_Teensyduino_();
     d62:	f000 ff3d 	bl	1be0 <___reboot_Teensyduino__veneer>
     d66:	bf00      	nop
     d68:	20200000 	.word	0x20200000

00000d6c <usb_config_rx>:
{
     d6c:	e92d 47f0 	stmdb	sp!, {r4, r5, r6, r7, r8, r9, sl, lr}
     d70:	461f      	mov	r7, r3
	if (ep < 2 || ep > NUM_ENDPOINTS) return;
     d72:	1e83      	subs	r3, r0, #2
     d74:	2b02      	cmp	r3, #2
     d76:	d901      	bls.n	d7c <usb_config_rx+0x10>
}
     d78:	e8bd 87f0 	ldmia.w	sp!, {r4, r5, r6, r7, r8, r9, sl, pc}
	usb_endpoint_config(endpoint_queue_head + ep * 2, config, cb);
     d7c:	f8df 904c 	ldr.w	r9, [pc, #76]	; dcc <usb_config_rx+0x60>
     d80:	4615      	mov	r5, r2
     d82:	460c      	mov	r4, r1
	memset(qh, 0, sizeof(endpoint_t));
     d84:	223c      	movs	r2, #60	; 0x3c
	usb_endpoint_config(endpoint_queue_head + ep * 2, config, cb);
     d86:	eb09 18c0 	add.w	r8, r9, r0, lsl #7
	memset(qh, 0, sizeof(endpoint_t));
     d8a:	4606      	mov	r6, r0
	usb_endpoint_config(endpoint_queue_head + ep * 2, config, cb);
     d8c:	ea4f 1ac0 	mov.w	sl, r0, lsl #7
	memset(qh, 0, sizeof(endpoint_t));
     d90:	2100      	movs	r1, #0
     d92:	f108 0004 	add.w	r0, r8, #4
	uint32_t config = (packet_size << 16) | (do_zlp ? 0 : (1 << 29));
     d96:	0424      	lsls	r4, r4, #16
	memset(qh, 0, sizeof(endpoint_t));
     d98:	f000 feaa 	bl	1af0 <memset>
	uint32_t config = (packet_size << 16) | (do_zlp ? 0 : (1 << 29));
     d9c:	fab5 f285 	clz	r2, r5
	qh->next = 1; // Terminate bit = 1
     da0:	2301      	movs	r3, #1
	uint32_t config = (packet_size << 16) | (do_zlp ? 0 : (1 << 29));
     da2:	0952      	lsrs	r2, r2, #5
     da4:	ea44 7442 	orr.w	r4, r4, r2, lsl #29
	qh->config = config;
     da8:	f849 400a 	str.w	r4, [r9, sl]
	qh->callback_function = callback;
     dac:	f8c8 7038 	str.w	r7, [r8, #56]	; 0x38
	qh->next = 1; // Terminate bit = 1
     db0:	f8c8 3008 	str.w	r3, [r8, #8]
	if (cb) endpointN_notify_mask |= (1 << ep);
     db4:	2f00      	cmp	r7, #0
     db6:	d0df      	beq.n	d78 <usb_config_rx+0xc>
     db8:	4a03      	ldr	r2, [pc, #12]	; (dc8 <usb_config_rx+0x5c>)
     dba:	40b3      	lsls	r3, r6
     dbc:	6811      	ldr	r1, [r2, #0]
     dbe:	430b      	orrs	r3, r1
     dc0:	6013      	str	r3, [r2, #0]
}
     dc2:	e8bd 87f0 	ldmia.w	sp!, {r4, r5, r6, r7, r8, r9, sl, pc}
     dc6:	bf00      	nop
     dc8:	20000cc0 	.word	0x20000cc0
     dcc:	20000000 	.word	0x20000000

00000dd0 <usb_config_tx>:
{
     dd0:	e92d 47f0 	stmdb	sp!, {r4, r5, r6, r7, r8, r9, sl, lr}
     dd4:	460d      	mov	r5, r1
	if (ep < 2 || ep > NUM_ENDPOINTS) return;
     dd6:	1e81      	subs	r1, r0, #2
     dd8:	2902      	cmp	r1, #2
     dda:	d901      	bls.n	de0 <usb_config_tx+0x10>
}
     ddc:	e8bd 87f0 	ldmia.w	sp!, {r4, r5, r6, r7, r8, r9, sl, pc}
	usb_endpoint_config(endpoint_queue_head + ep * 2 + 1, config, cb);
     de0:	01c7      	lsls	r7, r0, #7
     de2:	f8df 904c 	ldr.w	r9, [pc, #76]	; e30 <usb_config_tx+0x60>
     de6:	4692      	mov	sl, r2
     de8:	4604      	mov	r4, r0
     dea:	3740      	adds	r7, #64	; 0x40
	memset(qh, 0, sizeof(endpoint_t));
     dec:	223c      	movs	r2, #60	; 0x3c
     dee:	2100      	movs	r1, #0
     df0:	461e      	mov	r6, r3
	usb_endpoint_config(endpoint_queue_head + ep * 2 + 1, config, cb);
     df2:	eb09 0807 	add.w	r8, r9, r7
	uint32_t config = (packet_size << 16) | (do_zlp ? 0 : (1 << 29));
     df6:	042d      	lsls	r5, r5, #16
	memset(qh, 0, sizeof(endpoint_t));
     df8:	f108 0004 	add.w	r0, r8, #4
     dfc:	f000 fe78 	bl	1af0 <memset>
	uint32_t config = (packet_size << 16) | (do_zlp ? 0 : (1 << 29));
     e00:	faba f28a 	clz	r2, sl
     e04:	0952      	lsrs	r2, r2, #5
     e06:	ea45 7242 	orr.w	r2, r5, r2, lsl #29
	qh->config = config;
     e0a:	f849 2007 	str.w	r2, [r9, r7]
	qh->next = 1; // Terminate bit = 1
     e0e:	2201      	movs	r2, #1
	qh->callback_function = callback;
     e10:	f8c8 6038 	str.w	r6, [r8, #56]	; 0x38
	qh->next = 1; // Terminate bit = 1
     e14:	f8c8 2008 	str.w	r2, [r8, #8]
	if (cb) endpointN_notify_mask |= (1 << (ep + 16));
     e18:	2e00      	cmp	r6, #0
     e1a:	d0df      	beq.n	ddc <usb_config_tx+0xc>
     e1c:	4b03      	ldr	r3, [pc, #12]	; (e2c <usb_config_tx+0x5c>)
     e1e:	3410      	adds	r4, #16
     e20:	6819      	ldr	r1, [r3, #0]
     e22:	40a2      	lsls	r2, r4
     e24:	430a      	orrs	r2, r1
     e26:	601a      	str	r2, [r3, #0]
}
     e28:	e8bd 87f0 	ldmia.w	sp!, {r4, r5, r6, r7, r8, r9, sl, pc}
     e2c:	20000cc0 	.word	0x20000cc0
     e30:	20000000 	.word	0x20000000

00000e34 <usb_prepare_transfer>:
	transfer->status = (len << 16) | (1<<7);
     e34:	0412      	lsls	r2, r2, #16
	transfer->pointer0 = addr;
     e36:	6081      	str	r1, [r0, #8]
	transfer->callback_param = param;
     e38:	61c3      	str	r3, [r0, #28]
	transfer->pointer3 = addr + 12288;
     e3a:	f501 5340 	add.w	r3, r1, #12288	; 0x3000
	transfer->status = (len << 16) | (1<<7);
     e3e:	f042 0280 	orr.w	r2, r2, #128	; 0x80
{
     e42:	b410      	push	{r4}
	transfer->next = 1;
     e44:	2401      	movs	r4, #1
	transfer->status = (len << 16) | (1<<7);
     e46:	6042      	str	r2, [r0, #4]
	transfer->pointer2 = addr + 8192;
     e48:	f501 5200 	add.w	r2, r1, #8192	; 0x2000
	transfer->next = 1;
     e4c:	6004      	str	r4, [r0, #0]
	transfer->pointer1 = addr + 4096;
     e4e:	f501 5480 	add.w	r4, r1, #4096	; 0x1000
	transfer->pointer4 = addr + 16384;
     e52:	f501 4180 	add.w	r1, r1, #16384	; 0x4000
	transfer->pointer1 = addr + 4096;
     e56:	60c4      	str	r4, [r0, #12]
	transfer->pointer4 = addr + 16384;
     e58:	6181      	str	r1, [r0, #24]
}
     e5a:	f85d 4b04 	ldr.w	r4, [sp], #4
	transfer->pointer3 = addr + 12288;
     e5e:	e9c0 2304 	strd	r2, r3, [r0, #16]
}
     e62:	4770      	bx	lr

00000e64 <usb_transmit>:

void usb_transmit(int endpoint_number, transfer_t *transfer)
{
	if (endpoint_number < 2 || endpoint_number > NUM_ENDPOINTS) return;
     e64:	1e83      	subs	r3, r0, #2
{
     e66:	460a      	mov	r2, r1
	if (endpoint_number < 2 || endpoint_number > NUM_ENDPOINTS) return;
     e68:	2b02      	cmp	r3, #2
     e6a:	d900      	bls.n	e6e <usb_transmit+0xa>
	endpoint_t *endpoint = endpoint_queue_head + endpoint_number * 2 + 1;
	uint32_t mask = 1 << (endpoint_number + 16);
	schedule_transfer(endpoint, mask, transfer);
}
     e6c:	4770      	bx	lr
	endpoint_t *endpoint = endpoint_queue_head + endpoint_number * 2 + 1;
     e6e:	4b06      	ldr	r3, [pc, #24]	; (e88 <usb_transmit+0x24>)
	uint32_t mask = 1 << (endpoint_number + 16);
     e70:	f100 0110 	add.w	r1, r0, #16
     e74:	f04f 0c01 	mov.w	ip, #1
	endpoint_t *endpoint = endpoint_queue_head + endpoint_number * 2 + 1;
     e78:	eb03 10c0 	add.w	r0, r3, r0, lsl #7
	schedule_transfer(endpoint, mask, transfer);
     e7c:	fa0c f101 	lsl.w	r1, ip, r1
     e80:	3040      	adds	r0, #64	; 0x40
     e82:	f7ff bb99 	b.w	5b8 <schedule_transfer>
     e86:	bf00      	nop
     e88:	20000000 	.word	0x20000000

00000e8c <usb_receive>:

void usb_receive(int endpoint_number, transfer_t *transfer)
{
	if (endpoint_number < 2 || endpoint_number > NUM_ENDPOINTS) return;
     e8c:	1e83      	subs	r3, r0, #2
{
     e8e:	460a      	mov	r2, r1
	if (endpoint_number < 2 || endpoint_number > NUM_ENDPOINTS) return;
     e90:	2b02      	cmp	r3, #2
     e92:	d900      	bls.n	e96 <usb_receive+0xa>
	endpoint_t *endpoint = endpoint_queue_head + endpoint_number * 2;
	uint32_t mask = 1 << endpoint_number;
	schedule_transfer(endpoint, mask, transfer);
}
     e94:	4770      	bx	lr
	uint32_t mask = 1 << endpoint_number;
     e96:	2101      	movs	r1, #1
	endpoint_t *endpoint = endpoint_queue_head + endpoint_number * 2;
     e98:	4b02      	ldr	r3, [pc, #8]	; (ea4 <usb_receive+0x18>)
	schedule_transfer(endpoint, mask, transfer);
     e9a:	4081      	lsls	r1, r0
     e9c:	eb03 10c0 	add.w	r0, r3, r0, lsl #7
     ea0:	f7ff bb8a 	b.w	5b8 <schedule_transfer>
     ea4:	20000000 	.word	0x20000000

00000ea8 <usb_transfer_status>:
		//if (!(cmd & USB_USBCMD_ATDTW)) continue;
		//if (status & 0x80) break; // for still active, only 1 reading needed
		//if (++count > 1) break; // for completed, check 10 times
	}
#else
	return transfer->status;
     ea8:	6840      	ldr	r0, [r0, #4]
#endif
}
     eaa:	4770      	bx	lr

00000eac <usb_init_serialnumber>:
void usb_init_serialnumber(void)
{
	char buf[11];
	uint32_t i, num;

	num = HW_OCOTP_MAC0 & 0xFFFFFF;
     eac:	4a12      	ldr	r2, [pc, #72]	; (ef8 <usb_init_serialnumber+0x4c>)
	// add extra zero to work around OS-X CDC-ACM driver bug
	if (num < 10000000) num = num * 10;
     eae:	4b13      	ldr	r3, [pc, #76]	; (efc <usb_init_serialnumber+0x50>)
	num = HW_OCOTP_MAC0 & 0xFFFFFF;
     eb0:	f8d2 0220 	ldr.w	r0, [r2, #544]	; 0x220
     eb4:	f020 407f 	bic.w	r0, r0, #4278190080	; 0xff000000
	if (num < 10000000) num = num * 10;
     eb8:	4298      	cmp	r0, r3
{
     eba:	b510      	push	{r4, lr}
     ebc:	b084      	sub	sp, #16
	if (num < 10000000) num = num * 10;
     ebe:	d202      	bcs.n	ec6 <usb_init_serialnumber+0x1a>
     ec0:	eb00 0080 	add.w	r0, r0, r0, lsl #2
     ec4:	0040      	lsls	r0, r0, #1
	ultoa(num, buf, 10);
     ec6:	4c0e      	ldr	r4, [pc, #56]	; (f00 <usb_init_serialnumber+0x54>)
     ec8:	a901      	add	r1, sp, #4
     eca:	220a      	movs	r2, #10
     ecc:	f000 fd14 	bl	18f8 <ultoa>
	for (i=0; i<10; i++) {
     ed0:	a901      	add	r1, sp, #4
     ed2:	2300      	movs	r3, #0
     ed4:	4620      	mov	r0, r4
		char c = buf[i];
     ed6:	f811 2b01 	ldrb.w	r2, [r1], #1
	for (i=0; i<10; i++) {
     eda:	3301      	adds	r3, #1
		if (!c) break;
     edc:	b13a      	cbz	r2, eee <usb_init_serialnumber+0x42>
	for (i=0; i<10; i++) {
     ede:	2b0a      	cmp	r3, #10
		usb_string_serial_number_default.wString[i] = c;
     ee0:	f820 2f02 	strh.w	r2, [r0, #2]!
	for (i=0; i<10; i++) {
     ee4:	d1f7      	bne.n	ed6 <usb_init_serialnumber+0x2a>
     ee6:	2316      	movs	r3, #22
	}
	usb_string_serial_number_default.bLength = i * 2 + 2;
     ee8:	7023      	strb	r3, [r4, #0]
}
     eea:	b004      	add	sp, #16
     eec:	bd10      	pop	{r4, pc}
	usb_string_serial_number_default.bLength = i * 2 + 2;
     eee:	005b      	lsls	r3, r3, #1
     ef0:	b2db      	uxtb	r3, r3
     ef2:	7023      	strb	r3, [r4, #0]
}
     ef4:	b004      	add	sp, #16
     ef6:	bd10      	pop	{r4, pc}
     ef8:	401f4400 	.word	0x401f4400
     efc:	00989680 	.word	0x00989680
     f00:	200005f8 	.word	0x200005f8

00000f04 <rx_queue_transfer>:
/*************************************************************************/
/**                               Receive                               **/
/*************************************************************************/

static void rx_queue_transfer(int i)
{
     f04:	b5f8      	push	{r3, r4, r5, r6, r7, lr}
	NVIC_DISABLE_IRQ(IRQ_USB1);
	printf("rx queue i=%d\n", i);
	void *buffer = rx_buffer + i * CDC_RX_SIZE_480;
     f06:	4c14      	ldr	r4, [pc, #80]	; (f58 <rx_queue_transfer+0x54>)
	NVIC_DISABLE_IRQ(IRQ_USB1);
     f08:	f04f 25e0 	mov.w	r5, #3758153728	; 0xe000e000
	usb_prepare_transfer(rx_transfer + i, buffer, rx_packet_size, i);
     f0c:	4e13      	ldr	r6, [pc, #76]	; (f5c <rx_queue_transfer+0x58>)
	NVIC_DISABLE_IRQ(IRQ_USB1);
     f0e:	f44f 3200 	mov.w	r2, #131072	; 0x20000
	void *buffer = rx_buffer + i * CDC_RX_SIZE_480;
     f12:	eb04 2440 	add.w	r4, r4, r0, lsl #9
	usb_prepare_transfer(rx_transfer + i, buffer, rx_packet_size, i);
     f16:	4f12      	ldr	r7, [pc, #72]	; (f60 <rx_queue_transfer+0x5c>)
     f18:	eb06 1640 	add.w	r6, r6, r0, lsl #5
{
     f1c:	4603      	mov	r3, r0
	NVIC_DISABLE_IRQ(IRQ_USB1);
     f1e:	f8c5 218c 	str.w	r2, [r5, #396]	; 0x18c
	usb_prepare_transfer(rx_transfer + i, buffer, rx_packet_size, i);
     f22:	4621      	mov	r1, r4
     f24:	883a      	ldrh	r2, [r7, #0]
     f26:	4630      	mov	r0, r6
     f28:	f7ff ff84 	bl	e34 <usb_prepare_transfer>
	arm_dcache_delete(buffer, rx_packet_size);
     f2c:	883b      	ldrh	r3, [r7, #0]
	uint32_t end_addr = (uint32_t)addr + size;
     f2e:	4423      	add	r3, r4
	asm("dsb");
     f30:	f3bf 8f4f 	dsb	sy
		SCB_CACHE_DCIMVAC = location;
     f34:	f8c5 4f5c 	str.w	r4, [r5, #3932]	; 0xf5c
		location += 32;
     f38:	3420      	adds	r4, #32
	} while (location < end_addr);
     f3a:	42a3      	cmp	r3, r4
     f3c:	d8fa      	bhi.n	f34 <rx_queue_transfer+0x30>
	asm("dsb");
     f3e:	f3bf 8f4f 	dsb	sy
	asm("isb");
     f42:	f3bf 8f6f 	isb	sy
	usb_receive(CDC_RX_ENDPOINT, rx_transfer + i);
     f46:	2003      	movs	r0, #3
     f48:	4631      	mov	r1, r6
     f4a:	f7ff ff9f 	bl	e8c <usb_receive>
	NVIC_ENABLE_IRQ(IRQ_USB1);
     f4e:	f44f 3300 	mov.w	r3, #131072	; 0x20000
     f52:	f8c5 310c 	str.w	r3, [r5, #268]	; 0x10c
}
     f56:	bdf8      	pop	{r3, r4, r5, r6, r7, pc}
     f58:	20200080 	.word	0x20200080
     f5c:	20000b00 	.word	0x20000b00
     f60:	20000d48 	.word	0x20000d48

00000f64 <rx_event>:

// called by USB interrupt when any packet is received
static void rx_event(transfer_t *t)
{
	int len = rx_packet_size - ((t->status >> 16) & 0x7FFF);
     f64:	4b24      	ldr	r3, [pc, #144]	; (ff8 <rx_event+0x94>)
{
     f66:	e92d 41f0 	stmdb	sp!, {r4, r5, r6, r7, r8, lr}
	int len = rx_packet_size - ((t->status >> 16) & 0x7FFF);
     f6a:	881c      	ldrh	r4, [r3, #0]
     f6c:	6843      	ldr	r3, [r0, #4]
	int i = t->callback_param;
     f6e:	69c5      	ldr	r5, [r0, #28]
	int len = rx_packet_size - ((t->status >> 16) & 0x7FFF);
     f70:	f3c3 430e 	ubfx	r3, r3, #16, #15
     f74:	1ae4      	subs	r4, r4, r3
	printf("rx event, len=%d, i=%d\n", len, i);
	if (len > 0) {
     f76:	2c00      	cmp	r4, #0
     f78:	dd24      	ble.n	fc4 <rx_event+0x60>
		// received a packet with data
		uint32_t head = rx_head;
     f7a:	4920      	ldr	r1, [pc, #128]	; (ffc <rx_event+0x98>)
		if (head != rx_tail) {
     f7c:	4820      	ldr	r0, [pc, #128]	; (1000 <rx_event+0x9c>)
		uint32_t head = rx_head;
     f7e:	780a      	ldrb	r2, [r1, #0]
		if (head != rx_tail) {
     f80:	7800      	ldrb	r0, [r0, #0]
		uint32_t head = rx_head;
     f82:	b2d3      	uxtb	r3, r2
			// a previous packet is still buffered
			uint32_t ii = rx_list[head];
			uint32_t count = rx_count[ii];
     f84:	4e1f      	ldr	r6, [pc, #124]	; (1004 <rx_event+0xa0>)
		if (head != rx_tail) {
     f86:	4282      	cmp	r2, r0
			uint32_t ii = rx_list[head];
     f88:	481f      	ldr	r0, [pc, #124]	; (1008 <rx_event+0xa4>)
		if (head != rx_tail) {
     f8a:	d007      	beq.n	f9c <rx_event+0x38>
			uint32_t ii = rx_list[head];
     f8c:	f810 8003 	ldrb.w	r8, [r0, r3]
			uint32_t count = rx_count[ii];
     f90:	f836 7018 	ldrh.w	r7, [r6, r8, lsl #1]
			if (len <= CDC_RX_SIZE_480 - count) {
     f94:	f5c7 7200 	rsb	r2, r7, #512	; 0x200
     f98:	4294      	cmp	r4, r2
     f9a:	d918      	bls.n	fce <rx_event+0x6a>
			}
		}
		// add this packet to rx_list
		rx_count[i] = len;
		rx_index[i] = 0;
		if (++head > RX_NUM) head = 0;
     f9c:	3301      	adds	r3, #1
		rx_index[i] = 0;
     f9e:	2200      	movs	r2, #0
		rx_count[i] = len;
     fa0:	f826 4015 	strh.w	r4, [r6, r5, lsl #1]
		if (++head > RX_NUM) head = 0;
     fa4:	2b08      	cmp	r3, #8
		rx_index[i] = 0;
     fa6:	4e19      	ldr	r6, [pc, #100]	; (100c <rx_event+0xa8>)
		if (++head > RX_NUM) head = 0;
     fa8:	bf88      	it	hi
     faa:	4613      	movhi	r3, r2
		rx_index[i] = 0;
     fac:	f826 2015 	strh.w	r2, [r6, r5, lsl #1]
		rx_list[head] = i;
		rx_head = head;
     fb0:	bf98      	it	ls
     fb2:	b2da      	uxtbls	r2, r3
		rx_list[head] = i;
     fb4:	54c5      	strb	r5, [r0, r3]
		rx_available += len;
     fb6:	4b16      	ldr	r3, [pc, #88]	; (1010 <rx_event+0xac>)
		rx_head = head;
     fb8:	700a      	strb	r2, [r1, #0]
		rx_available += len;
     fba:	681a      	ldr	r2, [r3, #0]
     fbc:	4414      	add	r4, r2
     fbe:	601c      	str	r4, [r3, #0]
		// TODO: trigger serialEvent
	} else {
		// received a zero length packet
		rx_queue_transfer(i);
	}
}
     fc0:	e8bd 81f0 	ldmia.w	sp!, {r4, r5, r6, r7, r8, pc}
		rx_queue_transfer(i);
     fc4:	4628      	mov	r0, r5
}
     fc6:	e8bd 41f0 	ldmia.w	sp!, {r4, r5, r6, r7, r8, lr}
		rx_queue_transfer(i);
     fca:	f7ff bf9b 	b.w	f04 <rx_queue_transfer>
				memcpy(rx_buffer + ii * CDC_RX_SIZE_480 + count,
     fce:	eb07 2048 	add.w	r0, r7, r8, lsl #9
     fd2:	4910      	ldr	r1, [pc, #64]	; (1014 <rx_event+0xb0>)
     fd4:	4622      	mov	r2, r4
				rx_count[ii] = count + len;
     fd6:	4427      	add	r7, r4
				memcpy(rx_buffer + ii * CDC_RX_SIZE_480 + count,
     fd8:	4408      	add	r0, r1
     fda:	eb01 2145 	add.w	r1, r1, r5, lsl #9
     fde:	f000 fbf1 	bl	17c4 <memcpy>
				rx_available += len;
     fe2:	4a0b      	ldr	r2, [pc, #44]	; (1010 <rx_event+0xac>)
				rx_queue_transfer(i);
     fe4:	4628      	mov	r0, r5
				rx_count[ii] = count + len;
     fe6:	f826 7018 	strh.w	r7, [r6, r8, lsl #1]
				rx_available += len;
     fea:	6813      	ldr	r3, [r2, #0]
     fec:	4423      	add	r3, r4
}
     fee:	e8bd 41f0 	ldmia.w	sp!, {r4, r5, r6, r7, r8, lr}
				rx_available += len;
     ff2:	6013      	str	r3, [r2, #0]
				rx_queue_transfer(i);
     ff4:	f7ff bf86 	b.w	f04 <rx_queue_transfer>
     ff8:	20000d48 	.word	0x20000d48
     ffc:	20000d52 	.word	0x20000d52
    1000:	20000d53 	.word	0x20000d53
    1004:	20000ce8 	.word	0x20000ce8
    1008:	20000d08 	.word	0x20000d08
    100c:	20000cf8 	.word	0x20000cf8
    1010:	20000ce4 	.word	0x20000ce4
    1014:	20200080 	.word	0x20200080

00001018 <usb_serial_flush_callback>:
	tx_noautoflush = 0;
}

static void usb_serial_flush_callback(void)
{
	if (tx_noautoflush) return;
    1018:	4b1d      	ldr	r3, [pc, #116]	; (1090 <usb_serial_flush_callback+0x78>)
    101a:	781a      	ldrb	r2, [r3, #0]
    101c:	2a00      	cmp	r2, #0
    101e:	d136      	bne.n	108e <usb_serial_flush_callback+0x76>
	if (!usb_configuration) return;
    1020:	f002 03ff 	and.w	r3, r2, #255	; 0xff
    1024:	4a1b      	ldr	r2, [pc, #108]	; (1094 <usb_serial_flush_callback+0x7c>)
    1026:	7812      	ldrb	r2, [r2, #0]
    1028:	b38a      	cbz	r2, 108e <usb_serial_flush_callback+0x76>
{
    102a:	e92d 41f0 	stmdb	sp!, {r4, r5, r6, r7, r8, lr}
	if (tx_available == 0) return;
    102e:	4d1a      	ldr	r5, [pc, #104]	; (1098 <usb_serial_flush_callback+0x80>)
    1030:	882a      	ldrh	r2, [r5, #0]
    1032:	b352      	cbz	r2, 108a <usb_serial_flush_callback+0x72>
	//printf("flush callback, %d bytes\n", TX_SIZE - tx_available);
	transfer_t *xfer = tx_transfer + tx_head;
    1034:	4e19      	ldr	r6, [pc, #100]	; (109c <usb_serial_flush_callback+0x84>)
	uint8_t *txbuf = txbuffer + (tx_head * TX_SIZE);
	uint32_t txnum = TX_SIZE - tx_available;
    1036:	f5c2 6800 	rsb	r8, r2, #2048	; 0x800
	transfer_t *xfer = tx_transfer + tx_head;
    103a:	4f19      	ldr	r7, [pc, #100]	; (10a0 <usb_serial_flush_callback+0x88>)
    103c:	7832      	ldrb	r2, [r6, #0]
	uint8_t *txbuf = txbuffer + (tx_head * TX_SIZE);
    103e:	4c19      	ldr	r4, [pc, #100]	; (10a4 <usb_serial_flush_callback+0x8c>)
	transfer_t *xfer = tx_transfer + tx_head;
    1040:	eb07 1742 	add.w	r7, r7, r2, lsl #5
	uint8_t *txbuf = txbuffer + (tx_head * TX_SIZE);
    1044:	eb04 24c2 	add.w	r4, r4, r2, lsl #11
	usb_prepare_transfer(xfer, txbuf, txnum, 0);
    1048:	4642      	mov	r2, r8
    104a:	4638      	mov	r0, r7
    104c:	4621      	mov	r1, r4
    104e:	f7ff fef1 	bl	e34 <usb_prepare_transfer>
	uint32_t end_addr = (uint32_t)addr + size;
    1052:	eb04 0208 	add.w	r2, r4, r8
	asm("dsb");
    1056:	f3bf 8f4f 	dsb	sy
		SCB_CACHE_DCCIMVAC = location;
    105a:	f04f 23e0 	mov.w	r3, #3758153728	; 0xe000e000
    105e:	f8c3 4f70 	str.w	r4, [r3, #3952]	; 0xf70
		location += 32;
    1062:	3420      	adds	r4, #32
	} while (location < end_addr);
    1064:	42a2      	cmp	r2, r4
    1066:	d8fa      	bhi.n	105e <usb_serial_flush_callback+0x46>
	asm("dsb");
    1068:	f3bf 8f4f 	dsb	sy
	asm("isb");
    106c:	f3bf 8f6f 	isb	sy
	arm_dcache_flush_delete(txbuf, txnum);
	usb_transmit(CDC_TX_ENDPOINT, xfer);
    1070:	2004      	movs	r0, #4
    1072:	4639      	mov	r1, r7
    1074:	f7ff fef6 	bl	e64 <usb_transmit>
	if (++tx_head >= TX_NUM) tx_head = 0;
    1078:	7833      	ldrb	r3, [r6, #0]
    107a:	3301      	adds	r3, #1
    107c:	b2db      	uxtb	r3, r3
    107e:	2b03      	cmp	r3, #3
    1080:	bf88      	it	hi
    1082:	2300      	movhi	r3, #0
    1084:	7033      	strb	r3, [r6, #0]
	tx_available = 0;
    1086:	2300      	movs	r3, #0
    1088:	802b      	strh	r3, [r5, #0]
}
    108a:	e8bd 81f0 	ldmia.w	sp!, {r4, r5, r6, r7, r8, pc}
    108e:	4770      	bx	lr
    1090:	20000d57 	.word	0x20000d57
    1094:	20000d59 	.word	0x20000d59
    1098:	20000d4a 	.word	0x20000d4a
    109c:	20000d56 	.word	0x20000d56
    10a0:	20000c00 	.word	0x20000c00
    10a4:	20201080 	.word	0x20201080

000010a8 <usb_serial_write.part.0>:
int usb_serial_write(const void *buffer, uint32_t size)
    10a8:	e92d 4ff0 	stmdb	sp!, {r4, r5, r6, r7, r8, r9, sl, fp, lr}
    10ac:	b085      	sub	sp, #20
	while (size > 0) {
    10ae:	e9cd 1001 	strd	r1, r0, [sp, #4]
    10b2:	2900      	cmp	r1, #0
    10b4:	f000 80bf 	beq.w	1236 <usb_serial_write.part.0+0x18e>
	uint32_t sent=0;
    10b8:	2300      	movs	r3, #0
    10ba:	4c60      	ldr	r4, [pc, #384]	; (123c <usb_serial_write.part.0+0x194>)
    10bc:	f8df 8198 	ldr.w	r8, [pc, #408]	; 1258 <usb_serial_write.part.0+0x1b0>
    10c0:	f8df a198 	ldr.w	sl, [pc, #408]	; 125c <usb_serial_write.part.0+0x1b4>
				wait_begin_at = systick_millis_count;
    10c4:	4f5e      	ldr	r7, [pc, #376]	; (1240 <usb_serial_write.part.0+0x198>)
	uint32_t sent=0;
    10c6:	9300      	str	r3, [sp, #0]
		tx_noautoflush = 1;
    10c8:	2301      	movs	r3, #1
		transfer_t *xfer = tx_transfer + tx_head;
    10ca:	4a5e      	ldr	r2, [pc, #376]	; (1244 <usb_serial_write.part.0+0x19c>)
		tx_noautoflush = 1;
    10cc:	7023      	strb	r3, [r4, #0]
		transfer_t *xfer = tx_transfer + tx_head;
    10ce:	4b5e      	ldr	r3, [pc, #376]	; (1248 <usb_serial_write.part.0+0x1a0>)
    10d0:	7819      	ldrb	r1, [r3, #0]
		while (!tx_available) {
    10d2:	f8b8 3000 	ldrh.w	r3, [r8]
		transfer_t *xfer = tx_transfer + tx_head;
    10d6:	eb02 1941 	add.w	r9, r2, r1, lsl #5
		while (!tx_available) {
    10da:	2b00      	cmp	r3, #0
    10dc:	f040 80a7 	bne.w	122e <usb_serial_write.part.0+0x186>
		uint32_t wait_begin_at=0;
    10e0:	461e      	mov	r6, r3
		int waiting=0;
    10e2:	461d      	mov	r5, r3
			tx_noautoflush = 0;
    10e4:	469b      	mov	fp, r3
			uint32_t status = usb_transfer_status(xfer);
    10e6:	4648      	mov	r0, r9
    10e8:	f7ff fede 	bl	ea8 <usb_transfer_status>
			if (!(status & 0x80)) {
    10ec:	f010 0080 	ands.w	r0, r0, #128	; 0x80
    10f0:	f000 808c 	beq.w	120c <usb_serial_write.part.0+0x164>
			asm("dsb" ::: "memory");
    10f4:	f3bf 8f4f 	dsb	sy
			if (transmit_previous_timeout) return sent;
    10f8:	f89a 3000 	ldrb.w	r3, [sl]
			tx_noautoflush = 0;
    10fc:	f884 b000 	strb.w	fp, [r4]
			if (!waiting) {
    1100:	b905      	cbnz	r5, 1104 <usb_serial_write.part.0+0x5c>
				wait_begin_at = systick_millis_count;
    1102:	683e      	ldr	r6, [r7, #0]
			if (transmit_previous_timeout) return sent;
    1104:	2b00      	cmp	r3, #0
    1106:	d17d      	bne.n	1204 <usb_serial_write.part.0+0x15c>
			if (systick_millis_count - wait_begin_at > TX_TIMEOUT_MSEC) {
    1108:	683b      	ldr	r3, [r7, #0]
    110a:	1b9b      	subs	r3, r3, r6
    110c:	2b78      	cmp	r3, #120	; 0x78
    110e:	f200 8087 	bhi.w	1220 <usb_serial_write.part.0+0x178>
			if (!usb_configuration) return sent;
    1112:	4b4e      	ldr	r3, [pc, #312]	; (124c <usb_serial_write.part.0+0x1a4>)
    1114:	781b      	ldrb	r3, [r3, #0]
    1116:	2b00      	cmp	r3, #0
    1118:	d074      	beq.n	1204 <usb_serial_write.part.0+0x15c>
			yield();
    111a:	f000 f93b 	bl	1394 <yield>
			tx_noautoflush = 1;
    111e:	2201      	movs	r2, #1
		while (!tx_available) {
    1120:	f8b8 3000 	ldrh.w	r3, [r8]
    1124:	4615      	mov	r5, r2
			tx_noautoflush = 1;
    1126:	7022      	strb	r2, [r4, #0]
		while (!tx_available) {
    1128:	2b00      	cmp	r3, #0
    112a:	d0dc      	beq.n	10e6 <usb_serial_write.part.0+0x3e>
		uint8_t *txdata = txbuffer + (tx_head * TX_SIZE) + (TX_SIZE - tx_available);
    112c:	4a46      	ldr	r2, [pc, #280]	; (1248 <usb_serial_write.part.0+0x1a0>)
    112e:	f5c3 6000 	rsb	r0, r3, #2048	; 0x800
    1132:	7811      	ldrb	r1, [r2, #0]
    1134:	461a      	mov	r2, r3
    1136:	eb00 20c1 	add.w	r0, r0, r1, lsl #11
    113a:	4d45      	ldr	r5, [pc, #276]	; (1250 <usb_serial_write.part.0+0x1a8>)
    113c:	02c9      	lsls	r1, r1, #11
    113e:	4428      	add	r0, r5
		if (size >= tx_available) {
    1140:	9d01      	ldr	r5, [sp, #4]
    1142:	4295      	cmp	r5, r2
    1144:	d217      	bcs.n	1176 <usb_serial_write.part.0+0xce>
			memcpy(txdata, data, size);
    1146:	9303      	str	r3, [sp, #12]
    1148:	e9dd 5101 	ldrd	r5, r1, [sp, #4]
    114c:	462a      	mov	r2, r5
    114e:	f000 fb39 	bl	17c4 <memcpy>
			tx_available -= size;
    1152:	9b03      	ldr	r3, [sp, #12]
	USB1_GPTIMER0CTRL = USB_GPTIMERCTRL_GPTRUN | USB_GPTIMERCTRL_GPTRST;
    1154:	f04f 4240 	mov.w	r2, #3221225472	; 0xc0000000
			tx_available -= size;
    1158:	1b5b      	subs	r3, r3, r5
    115a:	f8a8 3000 	strh.w	r3, [r8]
	USB1_GPTIMER0CTRL = USB_GPTIMERCTRL_GPTRUN | USB_GPTIMERCTRL_GPTRST;
    115e:	4b3d      	ldr	r3, [pc, #244]	; (1254 <usb_serial_write.part.0+0x1ac>)
    1160:	f8c3 2084 	str.w	r2, [r3, #132]	; 0x84
		asm("dsb" ::: "memory");
    1164:	f3bf 8f4f 	dsb	sy
			sent += size;
    1168:	9800      	ldr	r0, [sp, #0]
		tx_noautoflush = 0;
    116a:	2300      	movs	r3, #0
			sent += size;
    116c:	4428      	add	r0, r5
		tx_noautoflush = 0;
    116e:	7023      	strb	r3, [r4, #0]
}
    1170:	b005      	add	sp, #20
    1172:	e8bd 8ff0 	ldmia.w	sp!, {r4, r5, r6, r7, r8, r9, sl, fp, pc}
			uint8_t *txbuf = txbuffer + (tx_head * TX_SIZE);
    1176:	4b36      	ldr	r3, [pc, #216]	; (1250 <usb_serial_write.part.0+0x1a8>)
    1178:	18cd      	adds	r5, r1, r3
			memcpy(txdata, data, tx_available);
    117a:	9902      	ldr	r1, [sp, #8]
    117c:	f000 fb22 	bl	17c4 <memcpy>
			usb_prepare_transfer(xfer, txbuf, TX_SIZE, 0);
    1180:	2300      	movs	r3, #0
    1182:	f44f 6200 	mov.w	r2, #2048	; 0x800
    1186:	4629      	mov	r1, r5
    1188:	4648      	mov	r0, r9
    118a:	f7ff fe53 	bl	e34 <usb_prepare_transfer>
	asm("dsb");
    118e:	f3bf 8f4f 	dsb	sy
    1192:	f105 0220 	add.w	r2, r5, #32
	uint32_t end_addr = (uint32_t)addr + size;
    1196:	f505 6300 	add.w	r3, r5, #2048	; 0x800
    119a:	4293      	cmp	r3, r2
    119c:	bf34      	ite	cc
    119e:	2301      	movcc	r3, #1
    11a0:	2340      	movcs	r3, #64	; 0x40
		SCB_CACHE_DCCIMVAC = location;
    11a2:	f04f 22e0 	mov.w	r2, #3758153728	; 0xe000e000
    11a6:	eb05 1343 	add.w	r3, r5, r3, lsl #5
    11aa:	f8c2 5f70 	str.w	r5, [r2, #3952]	; 0xf70
		location += 32;
    11ae:	3520      	adds	r5, #32
	} while (location < end_addr);
    11b0:	42ab      	cmp	r3, r5
    11b2:	d1fa      	bne.n	11aa <usb_serial_write.part.0+0x102>
	asm("dsb");
    11b4:	f3bf 8f4f 	dsb	sy
	asm("isb");
    11b8:	f3bf 8f6f 	isb	sy
			usb_transmit(CDC_TX_ENDPOINT, xfer);
    11bc:	2004      	movs	r0, #4
    11be:	4649      	mov	r1, r9
    11c0:	f7ff fe50 	bl	e64 <usb_transmit>
			if (++tx_head >= TX_NUM) tx_head = 0;
    11c4:	4a20      	ldr	r2, [pc, #128]	; (1248 <usb_serial_write.part.0+0x1a0>)
    11c6:	7813      	ldrb	r3, [r2, #0]
    11c8:	3301      	adds	r3, #1
    11ca:	b2db      	uxtb	r3, r3
    11cc:	2b03      	cmp	r3, #3
    11ce:	bf84      	itt	hi
    11d0:	2300      	movhi	r3, #0
    11d2:	4a1d      	ldrhi	r2, [pc, #116]	; (1248 <usb_serial_write.part.0+0x1a0>)
    11d4:	7013      	strb	r3, [r2, #0]
			size -= tx_available;
    11d6:	f8b8 3000 	ldrh.w	r3, [r8]
    11da:	9a01      	ldr	r2, [sp, #4]
    11dc:	1ad1      	subs	r1, r2, r3
			sent += tx_available;
    11de:	9a00      	ldr	r2, [sp, #0]
    11e0:	441a      	add	r2, r3
			size -= tx_available;
    11e2:	9101      	str	r1, [sp, #4]
			sent += tx_available;
    11e4:	9200      	str	r2, [sp, #0]
			data += tx_available;
    11e6:	9a02      	ldr	r2, [sp, #8]
    11e8:	441a      	add	r2, r3
			tx_available = 0;
    11ea:	2300      	movs	r3, #0
			data += tx_available;
    11ec:	9202      	str	r2, [sp, #8]
	USB1_GPTIMER0CTRL = 0;
    11ee:	4a19      	ldr	r2, [pc, #100]	; (1254 <usb_serial_write.part.0+0x1ac>)
			tx_available = 0;
    11f0:	f8a8 3000 	strh.w	r3, [r8]
	USB1_GPTIMER0CTRL = 0;
    11f4:	f8c2 3084 	str.w	r3, [r2, #132]	; 0x84
		asm("dsb" ::: "memory");
    11f8:	f3bf 8f4f 	dsb	sy
		tx_noautoflush = 0;
    11fc:	7023      	strb	r3, [r4, #0]
	while (size > 0) {
    11fe:	2900      	cmp	r1, #0
    1200:	f47f af62 	bne.w	10c8 <usb_serial_write.part.0+0x20>
	return sent;
    1204:	9800      	ldr	r0, [sp, #0]
}
    1206:	b005      	add	sp, #20
    1208:	e8bd 8ff0 	ldmia.w	sp!, {r4, r5, r6, r7, r8, r9, sl, fp, pc}
				tx_available = TX_SIZE;
    120c:	f44f 6200 	mov.w	r2, #2048	; 0x800
		uint8_t *txdata = txbuffer + (tx_head * TX_SIZE) + (TX_SIZE - tx_available);
    1210:	4b0d      	ldr	r3, [pc, #52]	; (1248 <usb_serial_write.part.0+0x1a0>)
				transmit_previous_timeout = 0;
    1212:	f88a 0000 	strb.w	r0, [sl]
		uint8_t *txdata = txbuffer + (tx_head * TX_SIZE) + (TX_SIZE - tx_available);
    1216:	7819      	ldrb	r1, [r3, #0]
				break;
    1218:	4613      	mov	r3, r2
				tx_available = TX_SIZE;
    121a:	f8a8 2000 	strh.w	r2, [r8]
				break;
    121e:	e78a      	b.n	1136 <usb_serial_write.part.0+0x8e>
				transmit_previous_timeout = 1;
    1220:	2301      	movs	r3, #1
				return sent;
    1222:	9800      	ldr	r0, [sp, #0]
				transmit_previous_timeout = 1;
    1224:	f88a 3000 	strb.w	r3, [sl]
}
    1228:	b005      	add	sp, #20
    122a:	e8bd 8ff0 	ldmia.w	sp!, {r4, r5, r6, r7, r8, r9, sl, fp, pc}
		uint8_t *txdata = txbuffer + (tx_head * TX_SIZE) + (TX_SIZE - tx_available);
    122e:	461a      	mov	r2, r3
    1230:	f5c3 6000 	rsb	r0, r3, #2048	; 0x800
    1234:	e77f      	b.n	1136 <usb_serial_write.part.0+0x8e>
	while (size > 0) {
    1236:	9801      	ldr	r0, [sp, #4]
	return sent;
    1238:	e7e5      	b.n	1206 <usb_serial_write.part.0+0x15e>
    123a:	bf00      	nop
    123c:	20000d57 	.word	0x20000d57
    1240:	20000d2c 	.word	0x20000d2c
    1244:	20000c00 	.word	0x20000c00
    1248:	20000d56 	.word	0x20000d56
    124c:	20000d59 	.word	0x20000d59
    1250:	20201080 	.word	0x20201080
    1254:	402e0000 	.word	0x402e0000
    1258:	20000d4a 	.word	0x20000d4a
    125c:	20000d55 	.word	0x20000d55

00001260 <usb_serial_reset>:
}
    1260:	4770      	bx	lr
    1262:	bf00      	nop

00001264 <usb_serial_configure>:
	if (usb_high_speed) {
    1264:	4b2d      	ldr	r3, [pc, #180]	; (131c <usb_serial_configure+0xb8>)
	memset(tx_transfer, 0, sizeof(tx_transfer));
    1266:	2100      	movs	r1, #0
    1268:	2280      	movs	r2, #128	; 0x80
    126a:	482d      	ldr	r0, [pc, #180]	; (1320 <usb_serial_configure+0xbc>)
{
    126c:	b570      	push	{r4, r5, r6, lr}
	if (usb_high_speed) {
    126e:	781b      	ldrb	r3, [r3, #0]
	tx_head = 0;
    1270:	2400      	movs	r4, #0
		tx_packet_size = CDC_TX_SIZE_480;
    1272:	4d2c      	ldr	r5, [pc, #176]	; (1324 <usb_serial_configure+0xc0>)
	if (usb_high_speed) {
    1274:	428b      	cmp	r3, r1
		rx_packet_size = CDC_RX_SIZE_480;
    1276:	4e2c      	ldr	r6, [pc, #176]	; (1328 <usb_serial_configure+0xc4>)
	if (usb_high_speed) {
    1278:	bf0c      	ite	eq
    127a:	2340      	moveq	r3, #64	; 0x40
    127c:	f44f 7300 	movne.w	r3, #512	; 0x200
		tx_packet_size = CDC_TX_SIZE_480;
    1280:	802b      	strh	r3, [r5, #0]
		rx_packet_size = CDC_RX_SIZE_480;
    1282:	8033      	strh	r3, [r6, #0]
	memset(tx_transfer, 0, sizeof(tx_transfer));
    1284:	f000 fc34 	bl	1af0 <memset>
	tx_head = 0;
    1288:	4a28      	ldr	r2, [pc, #160]	; (132c <usb_serial_configure+0xc8>)
	memset(rx_transfer, 0, sizeof(rx_transfer));
    128a:	4621      	mov	r1, r4
	tx_available = 0;
    128c:	4b28      	ldr	r3, [pc, #160]	; (1330 <usb_serial_configure+0xcc>)
	tx_head = 0;
    128e:	7014      	strb	r4, [r2, #0]
	memset(rx_transfer, 0, sizeof(rx_transfer));
    1290:	f44f 7280 	mov.w	r2, #256	; 0x100
    1294:	4827      	ldr	r0, [pc, #156]	; (1334 <usb_serial_configure+0xd0>)
	tx_available = 0;
    1296:	801c      	strh	r4, [r3, #0]
	memset(rx_transfer, 0, sizeof(rx_transfer));
    1298:	f000 fc2a 	bl	1af0 <memset>
	memset(rx_count, 0, sizeof(rx_count));
    129c:	4a26      	ldr	r2, [pc, #152]	; (1338 <usb_serial_configure+0xd4>)
	usb_config_tx(CDC_ACM_ENDPOINT, CDC_ACM_SIZE, 0, NULL); // size same 12 & 480
    129e:	2110      	movs	r1, #16
	memset(rx_index, 0, sizeof(rx_index));
    12a0:	4b26      	ldr	r3, [pc, #152]	; (133c <usb_serial_configure+0xd8>)
	usb_config_tx(CDC_ACM_ENDPOINT, CDC_ACM_SIZE, 0, NULL); // size same 12 & 480
    12a2:	2002      	movs	r0, #2
	memset(rx_count, 0, sizeof(rx_count));
    12a4:	e9c2 4400 	strd	r4, r4, [r2]
    12a8:	e9c2 4402 	strd	r4, r4, [r2, #8]
	rx_head = 0;
    12ac:	4a24      	ldr	r2, [pc, #144]	; (1340 <usb_serial_configure+0xdc>)
	memset(rx_index, 0, sizeof(rx_index));
    12ae:	e9c3 4400 	strd	r4, r4, [r3]
	rx_head = 0;
    12b2:	7014      	strb	r4, [r2, #0]
	rx_available = 0;
    12b4:	4a23      	ldr	r2, [pc, #140]	; (1344 <usb_serial_configure+0xe0>)
	memset(rx_index, 0, sizeof(rx_index));
    12b6:	e9c3 4402 	strd	r4, r4, [r3, #8]
	rx_tail = 0;
    12ba:	4b23      	ldr	r3, [pc, #140]	; (1348 <usb_serial_configure+0xe4>)
    12bc:	701c      	strb	r4, [r3, #0]
	usb_config_tx(CDC_ACM_ENDPOINT, CDC_ACM_SIZE, 0, NULL); // size same 12 & 480
    12be:	4623      	mov	r3, r4
	rx_available = 0;
    12c0:	6014      	str	r4, [r2, #0]
	usb_config_tx(CDC_ACM_ENDPOINT, CDC_ACM_SIZE, 0, NULL); // size same 12 & 480
    12c2:	4622      	mov	r2, r4
    12c4:	f7ff fd84 	bl	dd0 <usb_config_tx>
	usb_config_rx(CDC_RX_ENDPOINT, rx_packet_size, 0, rx_event);
    12c8:	4622      	mov	r2, r4
    12ca:	8831      	ldrh	r1, [r6, #0]
    12cc:	2003      	movs	r0, #3
    12ce:	4b1f      	ldr	r3, [pc, #124]	; (134c <usb_serial_configure+0xe8>)
    12d0:	f7ff fd4c 	bl	d6c <usb_config_rx>
	usb_config_tx(CDC_TX_ENDPOINT, tx_packet_size, 1, NULL);
    12d4:	4623      	mov	r3, r4
    12d6:	2201      	movs	r2, #1
    12d8:	8829      	ldrh	r1, [r5, #0]
    12da:	2004      	movs	r0, #4
    12dc:	f7ff fd78 	bl	dd0 <usb_config_tx>
	for (i=0; i < RX_NUM; i++) rx_queue_transfer(i);
    12e0:	4620      	mov	r0, r4
    12e2:	3401      	adds	r4, #1
    12e4:	f7ff fe0e 	bl	f04 <rx_queue_transfer>
    12e8:	2c08      	cmp	r4, #8
    12ea:	d1f9      	bne.n	12e0 <usb_serial_configure+0x7c>
	USB1_GPTIMER0CTRL = 0;
    12ec:	4b18      	ldr	r3, [pc, #96]	; (1350 <usb_serial_configure+0xec>)
    12ee:	2100      	movs	r1, #0
	USB1_GPTIMER0LD = microseconds - 1;
    12f0:	224a      	movs	r2, #74	; 0x4a
	usb_timer0_callback = callback;
    12f2:	4818      	ldr	r0, [pc, #96]	; (1354 <usb_serial_configure+0xf0>)
    12f4:	4c18      	ldr	r4, [pc, #96]	; (1358 <usb_serial_configure+0xf4>)
    12f6:	6004      	str	r4, [r0, #0]
	USB1_GPTIMER0CTRL = 0;
    12f8:	f8c3 1084 	str.w	r1, [r3, #132]	; 0x84
	USB1_GPTIMER0LD = microseconds - 1;
    12fc:	f8c3 2080 	str.w	r2, [r3, #128]	; 0x80
	USB1_USBINTR |= USB_USBINTR_TIE0;
    1300:	f8d3 2148 	ldr.w	r2, [r3, #328]	; 0x148
	if (serialEvent) yield_active_check_flags |= YIELD_CHECK_USB_SERIAL;
    1304:	4915      	ldr	r1, [pc, #84]	; (135c <usb_serial_configure+0xf8>)
	USB1_USBINTR |= USB_USBINTR_TIE0;
    1306:	f042 7280 	orr.w	r2, r2, #16777216	; 0x1000000
    130a:	f8c3 2148 	str.w	r2, [r3, #328]	; 0x148
	if (serialEvent) yield_active_check_flags |= YIELD_CHECK_USB_SERIAL;
    130e:	b121      	cbz	r1, 131a <usb_serial_configure+0xb6>
    1310:	4a13      	ldr	r2, [pc, #76]	; (1360 <usb_serial_configure+0xfc>)
    1312:	7813      	ldrb	r3, [r2, #0]
    1314:	f043 0301 	orr.w	r3, r3, #1
    1318:	7013      	strb	r3, [r2, #0]
}
    131a:	bd70      	pop	{r4, r5, r6, pc}
    131c:	20000d5a 	.word	0x20000d5a
    1320:	20000c00 	.word	0x20000c00
    1324:	20000d4c 	.word	0x20000d4c
    1328:	20000d48 	.word	0x20000d48
    132c:	20000d56 	.word	0x20000d56
    1330:	20000d4a 	.word	0x20000d4a
    1334:	20000b00 	.word	0x20000b00
    1338:	20000ce8 	.word	0x20000ce8
    133c:	20000cf8 	.word	0x20000cf8
    1340:	20000d52 	.word	0x20000d52
    1344:	20000ce4 	.word	0x20000ce4
    1348:	20000d53 	.word	0x20000d53
    134c:	00000f65 	.word	0x00000f65
    1350:	402e0000 	.word	0x402e0000
    1354:	20000d40 	.word	0x20000d40
    1358:	00001019 	.word	0x00001019
    135c:	00000000 	.word	0x00000000
    1360:	20000d5c 	.word	0x20000d5c

00001364 <usb_serial_available>:
	uint32_t n = rx_available;
    1364:	4b04      	ldr	r3, [pc, #16]	; (1378 <usb_serial_available+0x14>)
{
    1366:	b510      	push	{r4, lr}
	uint32_t n = rx_available;
    1368:	681c      	ldr	r4, [r3, #0]
	if (n == 0) yield();
    136a:	b10c      	cbz	r4, 1370 <usb_serial_available+0xc>
}
    136c:	4620      	mov	r0, r4
    136e:	bd10      	pop	{r4, pc}
	if (n == 0) yield();
    1370:	f000 f810 	bl	1394 <yield>
}
    1374:	4620      	mov	r0, r4
    1376:	bd10      	pop	{r4, pc}
    1378:	20000ce4 	.word	0x20000ce4

0000137c <usb_serial_write>:
	if (!usb_configuration) return 0;
    137c:	4b04      	ldr	r3, [pc, #16]	; (1390 <usb_serial_write+0x14>)
    137e:	781b      	ldrb	r3, [r3, #0]
    1380:	f003 02ff 	and.w	r2, r3, #255	; 0xff
    1384:	b10b      	cbz	r3, 138a <usb_serial_write+0xe>
    1386:	f7ff be8f 	b.w	10a8 <usb_serial_write.part.0>
}
    138a:	4610      	mov	r0, r2
    138c:	4770      	bx	lr
    138e:	bf00      	nop
    1390:	20000d59 	.word	0x20000d59

00001394 <yield>:
uint8_t yield_active_check_flags = 0;


void yield(void) __attribute__ ((weak));
void yield(void)
{
    1394:	e92d 43f8 	stmdb	sp!, {r3, r4, r5, r6, r7, r8, r9, lr}
	const uint8_t check_flags = yield_active_check_flags;
    1398:	4b2d      	ldr	r3, [pc, #180]	; (1450 <yield+0xbc>)
    139a:	781e      	ldrb	r6, [r3, #0]
	if (!check_flags) return;	// nothing to do
    139c:	b166      	cbz	r6, 13b8 <yield+0x24>

	// TODO: do nothing if called from interrupt

	static uint8_t running=0;
	if (running) return; // TODO: does this need to be atomic?
    139e:	4f2d      	ldr	r7, [pc, #180]	; (1454 <yield+0xc0>)
    13a0:	783b      	ldrb	r3, [r7, #0]
    13a2:	b94b      	cbnz	r3, 13b8 <yield+0x24>
	running = 1;
    13a4:	2301      	movs	r3, #1

	// USB Serial - Add hack to minimize impact...
	if (check_flags & YIELD_CHECK_USB_SERIAL) {
    13a6:	07f1      	lsls	r1, r6, #31
	running = 1;
    13a8:	703b      	strb	r3, [r7, #0]
	if (check_flags & YIELD_CHECK_USB_SERIAL) {
    13aa:	d443      	bmi.n	1434 <yield+0xa0>
		if (SerialUSB2.available()) serialEventUSB2();
	}
#endif

	// Current workaround until integrate with EventResponder.
	if (check_flags & YIELD_CHECK_HARDWARE_SERIAL) {
    13ac:	07b2      	lsls	r2, r6, #30
    13ae:	d426      	bmi.n	13fe <yield+0x6a>
		HardwareSerialIMXRT::processSerialEventsList();
	}

	running = 0;
    13b0:	2300      	movs	r3, #0
    13b2:	703b      	strb	r3, [r7, #0]
	if (check_flags & YIELD_CHECK_EVENT_RESPONDER) {
    13b4:	0773      	lsls	r3, r6, #29
    13b6:	d401      	bmi.n	13bc <yield+0x28>
		EventResponder::runFromYield();
	}
};
    13b8:	e8bd 83f8 	ldmia.w	sp!, {r3, r4, r5, r6, r7, r8, r9, pc}
	// Wait for event(s) to occur.  These are most likely to be useful when
	// used with a scheduler or RTOS.
	bool waitForEvent(EventResponderRef event, int timeout);
	EventResponder * waitForEvent(EventResponder *list, int listsize, int timeout);
	static void runFromYield() {
		if (!firstYield) return;  
    13bc:	4b26      	ldr	r3, [pc, #152]	; (1458 <yield+0xc4>)
    13be:	681a      	ldr	r2, [r3, #0]
    13c0:	2a00      	cmp	r2, #0
    13c2:	d0f9      	beq.n	13b8 <yield+0x24>
		// First, check if yield was called from an interrupt
		// never call normal handler functions from any interrupt context
		uint32_t ipsr;
		__asm__ volatile("mrs %0, ipsr\n" : "=r" (ipsr)::);
    13c4:	f3ef 8205 	mrs	r2, IPSR
		if (ipsr != 0) return;
    13c8:	2a00      	cmp	r2, #0
    13ca:	d1f5      	bne.n	13b8 <yield+0x24>
	static EventResponder *lastInterrupt;
	static bool runningFromYield;
private:
	static bool disableInterrupts() {
		uint32_t primask;
		__asm__ volatile("mrs %0, primask\n" : "=r" (primask)::);
    13cc:	f3ef 8510 	mrs	r5, PRIMASK
		__disable_irq();
    13d0:	b672      	cpsid	i
		EventResponder *first = firstYield;
    13d2:	6818      	ldr	r0, [r3, #0]
		if (first == nullptr) {
    13d4:	2800      	cmp	r0, #0
    13d6:	d034      	beq.n	1442 <yield+0xae>
		if (runningFromYield) {
    13d8:	4c20      	ldr	r4, [pc, #128]	; (145c <yield+0xc8>)
    13da:	7821      	ldrb	r1, [r4, #0]
    13dc:	2900      	cmp	r1, #0
    13de:	d130      	bne.n	1442 <yield+0xae>
		runningFromYield = true;
    13e0:	2201      	movs	r2, #1
    13e2:	7022      	strb	r2, [r4, #0]
		firstYield = first->_next;
    13e4:	6942      	ldr	r2, [r0, #20]
    13e6:	601a      	str	r2, [r3, #0]
		if (firstYield) {
    13e8:	2a00      	cmp	r2, #0
    13ea:	d02e      	beq.n	144a <yield+0xb6>
			firstYield->_prev = nullptr;
    13ec:	6191      	str	r1, [r2, #24]
		return (primask == 0) ? true : false;
	}
	static void enableInterrupts(bool doit) {
		if (doit) __enable_irq();
    13ee:	b905      	cbnz	r5, 13f2 <yield+0x5e>
    13f0:	b662      	cpsie	i
		first->_triggered = false;
    13f2:	2500      	movs	r5, #0
		(*(first->_function))(*first);
    13f4:	6883      	ldr	r3, [r0, #8]
		first->_triggered = false;
    13f6:	7745      	strb	r5, [r0, #29]
		(*(first->_function))(*first);
    13f8:	4798      	blx	r3
		runningFromYield = false;
    13fa:	7025      	strb	r5, [r4, #0]
    13fc:	e7dc      	b.n	13b8 <yield+0x24>
	*/

	operator bool()			{ return true; }

	static inline void processSerialEventsList() {
		for (uint8_t i = 0; i < s_count_serials_with_serial_events; i++) {
    13fe:	f8df 8064 	ldr.w	r8, [pc, #100]	; 1464 <yield+0xd0>
    1402:	f898 3000 	ldrb.w	r3, [r8]
    1406:	2b00      	cmp	r3, #0
    1408:	d0d2      	beq.n	13b0 <yield+0x1c>
    140a:	2500      	movs	r5, #0
    140c:	f8df 9058 	ldr.w	r9, [pc, #88]	; 1468 <yield+0xd4>
    1410:	462b      	mov	r3, r5
			s_serials_with_serial_events[i]->doYieldCode();
    1412:	f859 4023 	ldr.w	r4, [r9, r3, lsl #2]
		for (uint8_t i = 0; i < s_count_serials_with_serial_events; i++) {
    1416:	3501      	adds	r5, #1
	static HardwareSerialIMXRT 	*s_serials_with_serial_events[7];
	#endif
	static uint8_t 			s_count_serials_with_serial_events;
	void addToSerialEventsList(); 
	inline void doYieldCode()  {
		if (available()) (*hardware->_serialEvent)();
    1418:	6823      	ldr	r3, [r4, #0]
    141a:	4620      	mov	r0, r4
    141c:	691b      	ldr	r3, [r3, #16]
    141e:	4798      	blx	r3
    1420:	b110      	cbz	r0, 1428 <yield+0x94>
    1422:	6963      	ldr	r3, [r4, #20]
    1424:	689b      	ldr	r3, [r3, #8]
    1426:	4798      	blx	r3
		for (uint8_t i = 0; i < s_count_serials_with_serial_events; i++) {
    1428:	f898 2000 	ldrb.w	r2, [r8]
    142c:	b2eb      	uxtb	r3, r5
    142e:	429a      	cmp	r2, r3
    1430:	d8ef      	bhi.n	1412 <yield+0x7e>
    1432:	e7bd      	b.n	13b0 <yield+0x1c>
        virtual int available() { return usb_serial_available(); }
    1434:	f7ff ff96 	bl	1364 <usb_serial_available>
		if (Serial.available()) serialEvent();
    1438:	2800      	cmp	r0, #0
    143a:	d0b7      	beq.n	13ac <yield+0x18>
    143c:	f3af 8000 	nop.w
    1440:	e7b4      	b.n	13ac <yield+0x18>
		if (doit) __enable_irq();
    1442:	2d00      	cmp	r5, #0
    1444:	d1b8      	bne.n	13b8 <yield+0x24>
    1446:	b662      	cpsie	i
    1448:	e7b6      	b.n	13b8 <yield+0x24>
			lastYield = nullptr;
    144a:	4b05      	ldr	r3, [pc, #20]	; (1460 <yield+0xcc>)
    144c:	601a      	str	r2, [r3, #0]
    144e:	e7ce      	b.n	13ee <yield+0x5a>
    1450:	20000d5c 	.word	0x20000d5c
    1454:	20000d50 	.word	0x20000d50
    1458:	20000c88 	.word	0x20000c88
    145c:	20000d4e 	.word	0x20000d4e
    1460:	20000c94 	.word	0x20000c94
    1464:	20000d4f 	.word	0x20000d4f
    1468:	20000c98 	.word	0x20000c98

0000146c <EventResponder::runFromInterrupt()>:
{
	EventResponder::runFromInterrupt();
}

void EventResponder::runFromInterrupt()
{
    146c:	b570      	push	{r4, r5, r6, lr}
		__asm__ volatile("mrs %0, primask\n" : "=r" (primask)::);
    146e:	f3ef 8210 	mrs	r2, PRIMASK
		__disable_irq();
    1472:	b672      	cpsid	i
	while (1) {
		bool irq = disableInterrupts();
		EventResponder *first = firstInterrupt;
    1474:	4c0c      	ldr	r4, [pc, #48]	; (14a8 <EventResponder::runFromInterrupt()+0x3c>)
    1476:	6820      	ldr	r0, [r4, #0]
		if (first) {
    1478:	b180      	cbz	r0, 149c <EventResponder::runFromInterrupt()+0x30>
			firstInterrupt = first->_next;
			if (firstInterrupt) {
				firstInterrupt->_prev = nullptr;
			} else {
				lastInterrupt = nullptr;
    147a:	4e0c      	ldr	r6, [pc, #48]	; (14ac <EventResponder::runFromInterrupt()+0x40>)
				firstInterrupt->_prev = nullptr;
    147c:	2500      	movs	r5, #0
			firstInterrupt = first->_next;
    147e:	6943      	ldr	r3, [r0, #20]
    1480:	6023      	str	r3, [r4, #0]
			if (firstInterrupt) {
    1482:	b173      	cbz	r3, 14a2 <EventResponder::runFromInterrupt()+0x36>
				firstInterrupt->_prev = nullptr;
    1484:	619d      	str	r5, [r3, #24]
		if (doit) __enable_irq();
    1486:	b902      	cbnz	r2, 148a <EventResponder::runFromInterrupt()+0x1e>
    1488:	b662      	cpsie	i
			}
			enableInterrupts(irq);
			first->_triggered = false;
			(*(first->_function))(*first);
    148a:	6883      	ldr	r3, [r0, #8]
			first->_triggered = false;
    148c:	7745      	strb	r5, [r0, #29]
			(*(first->_function))(*first);
    148e:	4798      	blx	r3
		__asm__ volatile("mrs %0, primask\n" : "=r" (primask)::);
    1490:	f3ef 8210 	mrs	r2, PRIMASK
		__disable_irq();
    1494:	b672      	cpsid	i
		EventResponder *first = firstInterrupt;
    1496:	6820      	ldr	r0, [r4, #0]
		if (first) {
    1498:	2800      	cmp	r0, #0
    149a:	d1f0      	bne.n	147e <EventResponder::runFromInterrupt()+0x12>
		if (doit) __enable_irq();
    149c:	b902      	cbnz	r2, 14a0 <EventResponder::runFromInterrupt()+0x34>
    149e:	b662      	cpsie	i
		} else {
			enableInterrupts(irq);
			break;
		}
	}
}
    14a0:	bd70      	pop	{r4, r5, r6, pc}
				lastInterrupt = nullptr;
    14a2:	6033      	str	r3, [r6, #0]
    14a4:	e7ef      	b.n	1486 <EventResponder::runFromInterrupt()+0x1a>
    14a6:	bf00      	nop
    14a8:	20000c90 	.word	0x20000c90
    14ac:	20000c8c 	.word	0x20000c8c

000014b0 <pendablesrvreq_isr>:
	EventResponder::runFromInterrupt();
    14b0:	f7ff bfdc 	b.w	146c <EventResponder::runFromInterrupt()>

000014b4 <systick_isr>:
extern "C" volatile uint32_t systick_millis_count;
extern "C" volatile uint32_t systick_cycle_count;
extern "C" uint32_t systick_safe_read; // micros() synchronization
extern "C" void systick_isr(void)
{
	systick_cycle_count = ARM_DWT_CYCCNT;
    14b4:	4904      	ldr	r1, [pc, #16]	; (14c8 <systick_isr+0x14>)
	systick_millis_count++;
    14b6:	4a05      	ldr	r2, [pc, #20]	; (14cc <systick_isr+0x18>)
	systick_cycle_count = ARM_DWT_CYCCNT;
    14b8:	6849      	ldr	r1, [r1, #4]
    14ba:	4b05      	ldr	r3, [pc, #20]	; (14d0 <systick_isr+0x1c>)
    14bc:	6019      	str	r1, [r3, #0]
	systick_millis_count++;
    14be:	6813      	ldr	r3, [r2, #0]
    14c0:	3301      	adds	r3, #1
    14c2:	6013      	str	r3, [r2, #0]
}
    14c4:	4770      	bx	lr
    14c6:	bf00      	nop
    14c8:	e0001000 	.word	0xe0001000
    14cc:	20000d2c 	.word	0x20000d2c
    14d0:	20000d28 	.word	0x20000d28

000014d4 <set_arm_clock>:
	uint32_t cbcmr = CCM_CBCMR; // pg 1023
	uint32_t dcdc = DCDC_REG3;

	// compute required voltage
	uint32_t voltage = 1150; // default = 1.15V
	if (frequency > 528000000) {
    14d4:	49a2      	ldr	r1, [pc, #648]	; (1760 <set_arm_clock+0x28c>)
	uint32_t cbcdr = CCM_CBCDR; // pg 1021
    14d6:	4ba3      	ldr	r3, [pc, #652]	; (1764 <set_arm_clock+0x290>)
	if (frequency > 528000000) {
    14d8:	4288      	cmp	r0, r1
{
    14da:	e92d 47f0 	stmdb	sp!, {r4, r5, r6, r7, r8, r9, sl, lr}
	uint32_t dcdc = DCDC_REG3;
    14de:	4ca2      	ldr	r4, [pc, #648]	; (1768 <set_arm_clock+0x294>)
	uint32_t cbcdr = CCM_CBCDR; // pg 1021
    14e0:	695e      	ldr	r6, [r3, #20]
	uint32_t cbcmr = CCM_CBCMR; // pg 1023
    14e2:	699a      	ldr	r2, [r3, #24]
	uint32_t dcdc = DCDC_REG3;
    14e4:	f8d4 800c 	ldr.w	r8, [r4, #12]
	if (frequency > 528000000) {
    14e8:	d91b      	bls.n	1522 <set_arm_clock+0x4e>
		voltage = 1250; // 1.25V
#if defined(OVERCLOCK_STEPSIZE) && defined(OVERCLOCK_MAX_VOLT)
		if (frequency > 600000000) {
    14ea:	4ba0      	ldr	r3, [pc, #640]	; (176c <set_arm_clock+0x298>)
    14ec:	4298      	cmp	r0, r3
    14ee:	f240 8102 	bls.w	16f6 <set_arm_clock+0x222>
			voltage += ((frequency - 600000000) / OVERCLOCK_STEPSIZE) * 25;
    14f2:	1ac3      	subs	r3, r0, r3
    14f4:	499e      	ldr	r1, [pc, #632]	; (1770 <set_arm_clock+0x29c>)
    14f6:	0a1b      	lsrs	r3, r3, #8
    14f8:	fba1 1303 	umull	r1, r3, r1, r3
		voltage = 950; // 0.95
	}

	// if voltage needs to increase, do it before switch clock speed
	CCM_CCGR6 |= CCM_CCGR6_DCDC(CCM_CCGR_ON);
	if ((dcdc & DCDC_REG3_TRG_MASK) < DCDC_REG3_TRG((voltage - 800) / 25)) {
    14fc:	f240 6127 	movw	r1, #1575	; 0x627
			voltage += ((frequency - 600000000) / OVERCLOCK_STEPSIZE) * 25;
    1500:	09db      	lsrs	r3, r3, #7
    1502:	eb03 0383 	add.w	r3, r3, r3, lsl #2
    1506:	eb03 0383 	add.w	r3, r3, r3, lsl #2
    150a:	f203 43e2 	addw	r3, r3, #1250	; 0x4e2
	if ((dcdc & DCDC_REG3_TRG_MASK) < DCDC_REG3_TRG((voltage - 800) / 25)) {
    150e:	428b      	cmp	r3, r1
    1510:	bf28      	it	cs
    1512:	460b      	movcs	r3, r1
    1514:	f5a3 7748 	sub.w	r7, r3, #800	; 0x320
    1518:	4b96      	ldr	r3, [pc, #600]	; (1774 <set_arm_clock+0x2a0>)
    151a:	fba3 3707 	umull	r3, r7, r3, r7
    151e:	08ff      	lsrs	r7, r7, #3
    1520:	e004      	b.n	152c <set_arm_clock+0x58>
	} else if (frequency <= 24000000) {
    1522:	4f95      	ldr	r7, [pc, #596]	; (1778 <set_arm_clock+0x2a4>)
    1524:	42b8      	cmp	r0, r7
    1526:	bf8c      	ite	hi
    1528:	270e      	movhi	r7, #14
    152a:	2706      	movls	r7, #6
	CCM_CCGR6 |= CCM_CCGR6_DCDC(CCM_CCGR_ON);
    152c:	498d      	ldr	r1, [pc, #564]	; (1764 <set_arm_clock+0x290>)
	if ((dcdc & DCDC_REG3_TRG_MASK) < DCDC_REG3_TRG((voltage - 800) / 25)) {
    152e:	f008 091f 	and.w	r9, r8, #31
	CCM_CCGR6 |= CCM_CCGR6_DCDC(CCM_CCGR_ON);
    1532:	f8d1 3080 	ldr.w	r3, [r1, #128]	; 0x80
	if ((dcdc & DCDC_REG3_TRG_MASK) < DCDC_REG3_TRG((voltage - 800) / 25)) {
    1536:	45b9      	cmp	r9, r7
	CCM_CCGR6 |= CCM_CCGR6_DCDC(CCM_CCGR_ON);
    1538:	f043 03c0 	orr.w	r3, r3, #192	; 0xc0
    153c:	f8c1 3080 	str.w	r3, [r1, #128]	; 0x80
	if ((dcdc & DCDC_REG3_TRG_MASK) < DCDC_REG3_TRG((voltage - 800) / 25)) {
    1540:	d20c      	bcs.n	155c <set_arm_clock+0x88>
		printf("Increasing voltage to %u mV\n", voltage);
		dcdc &= ~DCDC_REG3_TRG_MASK;
    1542:	f028 081f 	bic.w	r8, r8, #31
		dcdc |= DCDC_REG3_TRG((voltage - 800) / 25);
		DCDC_REG3 = dcdc;
    1546:	f5a1 21f8 	sub.w	r1, r1, #507904	; 0x7c000
		dcdc |= DCDC_REG3_TRG((voltage - 800) / 25);
    154a:	ea48 0807 	orr.w	r8, r8, r7
		DCDC_REG3 = dcdc;
    154e:	f8c1 800c 	str.w	r8, [r1, #12]
		while (!(DCDC_REG0 & DCDC_REG0_STS_DC_OK)) ; // wait voltage settling
    1552:	680b      	ldr	r3, [r1, #0]
    1554:	2b00      	cmp	r3, #0
    1556:	dafc      	bge.n	1552 <set_arm_clock+0x7e>
	scale_cpu_cycles_to_microseconds = 0xFFFFFFFFu / (uint32_t)(frequency / 1000000u);

	printf("New Frequency: ARM=%u, IPG=%u\n", frequency, frequency / div_ipg);

	// if voltage needs to decrease, do it after switch clock speed
	if ((dcdc & DCDC_REG3_TRG_MASK) > DCDC_REG3_TRG((voltage - 800) / 25)) {
    1558:	f008 091f 	and.w	r9, r8, #31
	if (!(cbcdr & CCM_CBCDR_PERIPH_CLK_SEL)) {
    155c:	f016 7300 	ands.w	r3, r6, #33554432	; 0x2000000
    1560:	d124      	bne.n	15ac <set_arm_clock+0xd8>
		if ((CCM_ANALOG_PLL_USB1 & need1s) == need1s) {
    1562:	4986      	ldr	r1, [pc, #536]	; (177c <set_arm_clock+0x2a8>)
    1564:	690c      	ldr	r4, [r1, #16]
    1566:	4986      	ldr	r1, [pc, #536]	; (1780 <set_arm_clock+0x2ac>)
    1568:	43a1      	bics	r1, r4
    156a:	f000 80ea 	beq.w	1742 <set_arm_clock+0x26e>
		if ((cbcmr & CCM_CBCMR_PERIPH_CLK2_SEL_MASK) != CCM_CBCMR_PERIPH_CLK2_SEL(sel)) {
    156e:	f482 5180 	eor.w	r1, r2, #4096	; 0x1000
    1572:	4634      	mov	r4, r6
    1574:	f44f 5580 	mov.w	r5, #4096	; 0x1000
		if ((cbcdr & CCM_CBCDR_PERIPH_CLK2_PODF_MASK) != CCM_CBCDR_PERIPH_CLK2_PODF(div)) {
    1578:	f014 5f60 	tst.w	r4, #939524096	; 0x38000000
    157c:	d004      	beq.n	1588 <set_arm_clock+0xb4>
			cbcdr &= ~CCM_CBCDR_PERIPH_CLK2_PODF_MASK;
    157e:	f026 5660 	bic.w	r6, r6, #939524096	; 0x38000000
			cbcdr |= CCM_CBCDR_PERIPH_CLK2_PODF(div);
    1582:	431e      	orrs	r6, r3
			CCM_CBCDR = cbcdr;
    1584:	4b77      	ldr	r3, [pc, #476]	; (1764 <set_arm_clock+0x290>)
    1586:	615e      	str	r6, [r3, #20]
		if ((cbcmr & CCM_CBCMR_PERIPH_CLK2_SEL_MASK) != CCM_CBCMR_PERIPH_CLK2_SEL(sel)) {
    1588:	f411 5f40 	tst.w	r1, #12288	; 0x3000
    158c:	d007      	beq.n	159e <set_arm_clock+0xca>
			cbcmr &= ~CCM_CBCMR_PERIPH_CLK2_SEL_MASK;
    158e:	f422 5240 	bic.w	r2, r2, #12288	; 0x3000
			CCM_CBCMR = cbcmr;
    1592:	4974      	ldr	r1, [pc, #464]	; (1764 <set_arm_clock+0x290>)
			cbcmr |= CCM_CBCMR_PERIPH_CLK2_SEL(sel);
    1594:	432a      	orrs	r2, r5
			CCM_CBCMR = cbcmr;
    1596:	618a      	str	r2, [r1, #24]
			while (CCM_CDHIPR & CCM_CDHIPR_PERIPH2_CLK_SEL_BUSY) ; // wait
    1598:	6c8b      	ldr	r3, [r1, #72]	; 0x48
    159a:	071a      	lsls	r2, r3, #28
    159c:	d4fc      	bmi.n	1598 <set_arm_clock+0xc4>
		cbcdr |= CCM_CBCDR_PERIPH_CLK_SEL;
    159e:	f046 7600 	orr.w	r6, r6, #33554432	; 0x2000000
		CCM_CBCDR = cbcdr;
    15a2:	4a70      	ldr	r2, [pc, #448]	; (1764 <set_arm_clock+0x290>)
    15a4:	6156      	str	r6, [r2, #20]
		while (CCM_CDHIPR & CCM_CDHIPR_PERIPH_CLK_SEL_BUSY) ; // wait
    15a6:	6c93      	ldr	r3, [r2, #72]	; 0x48
    15a8:	069b      	lsls	r3, r3, #26
    15aa:	d4fc      	bmi.n	15a6 <set_arm_clock+0xd2>
	while (frequency * div_arm * div_ahb < 648000000) {
    15ac:	4c75      	ldr	r4, [pc, #468]	; (1784 <set_arm_clock+0x2b0>)
    15ae:	42a0      	cmp	r0, r4
    15b0:	f200 80ce 	bhi.w	1750 <set_arm_clock+0x27c>
	uint32_t div_ahb = 1;
    15b4:	f04f 0c01 	mov.w	ip, #1
    15b8:	4601      	mov	r1, r0
	uint32_t div_arm = 1;
    15ba:	4663      	mov	r3, ip
	while (frequency * div_arm * div_ahb < 648000000) {
    15bc:	fb03 1201 	mla	r2, r3, r1, r1
			div_arm = div_arm + 1;
    15c0:	f103 0e01 	add.w	lr, r3, #1
				div_ahb = div_ahb + 1;
    15c4:	f10c 0501 	add.w	r5, ip, #1
	while (frequency * div_arm * div_ahb < 648000000) {
    15c8:	42a2      	cmp	r2, r4
    15ca:	d818      	bhi.n	15fe <set_arm_clock+0x12a>
		if (div_arm < 8) {
    15cc:	f1be 0f08 	cmp.w	lr, #8
				div_arm = 1;
    15d0:	f04f 0301 	mov.w	r3, #1
		if (div_arm < 8) {
    15d4:	f040 808d 	bne.w	16f2 <set_arm_clock+0x21e>
			if (div_ahb < 5) {
    15d8:	f1bc 0f04 	cmp.w	ip, #4
    15dc:	f200 8091 	bhi.w	1702 <set_arm_clock+0x22e>
	while (frequency * div_arm * div_ahb < 648000000) {
    15e0:	180a      	adds	r2, r1, r0
    15e2:	42a2      	cmp	r2, r4
    15e4:	f200 80a4 	bhi.w	1730 <set_arm_clock+0x25c>
    15e8:	fb05 f100 	mul.w	r1, r5, r0
				div_ahb = div_ahb + 1;
    15ec:	46ac      	mov	ip, r5
			div_arm = div_arm + 1;
    15ee:	f103 0e01 	add.w	lr, r3, #1
	while (frequency * div_arm * div_ahb < 648000000) {
    15f2:	fb03 1201 	mla	r2, r3, r1, r1
				div_ahb = div_ahb + 1;
    15f6:	f10c 0501 	add.w	r5, ip, #1
	while (frequency * div_arm * div_ahb < 648000000) {
    15fa:	42a2      	cmp	r2, r4
    15fc:	d9e6      	bls.n	15cc <set_arm_clock+0xf8>
	if ((cbcdr & CCM_CBCDR_AHB_PODF_MASK) != CCM_CBCDR_AHB_PODF(div_ahb - 1)) {
    15fe:	f10c 31ff 	add.w	r1, ip, #4294967295	; 0xffffffff
    1602:	028c      	lsls	r4, r1, #10
    1604:	ea86 2181 	eor.w	r1, r6, r1, lsl #10
	uint32_t mult = (frequency * div_arm * div_ahb + 6000000) / 12000000;
    1608:	485f      	ldr	r0, [pc, #380]	; (1788 <set_arm_clock+0x2b4>)
    160a:	4410      	add	r0, r2
	if (mult > 108) mult = 108;
    160c:	4a5f      	ldr	r2, [pc, #380]	; (178c <set_arm_clock+0x2b8>)
    160e:	4290      	cmp	r0, r2
    1610:	d97f      	bls.n	1712 <set_arm_clock+0x23e>
    1612:	f8df a1a4 	ldr.w	sl, [pc, #420]	; 17b8 <set_arm_clock+0x2e4>
    1616:	226c      	movs	r2, #108	; 0x6c
    1618:	485d      	ldr	r0, [pc, #372]	; (1790 <set_arm_clock+0x2bc>)
	if ((CCM_ANALOG_PLL_ARM & arm_pll_mask) != (CCM_ANALOG_PLL_ARM_LOCK
    161a:	4d58      	ldr	r5, [pc, #352]	; (177c <set_arm_clock+0x2a8>)
	frequency = mult * 12000000 / div_arm / div_ahb;
    161c:	fbb0 f0fe 	udiv	r0, r0, lr
	if ((CCM_ANALOG_PLL_ARM & arm_pll_mask) != (CCM_ANALOG_PLL_ARM_LOCK
    1620:	f8d5 e000 	ldr.w	lr, [r5]
	frequency = mult * 12000000 / div_arm / div_ahb;
    1624:	fbb0 f0fc 	udiv	r0, r0, ip
	if ((CCM_ANALOG_PLL_ARM & arm_pll_mask) != (CCM_ANALOG_PLL_ARM_LOCK
    1628:	f8df c190 	ldr.w	ip, [pc, #400]	; 17bc <set_arm_clock+0x2e8>
    162c:	ea0e 0c0c 	and.w	ip, lr, ip
    1630:	45d4      	cmp	ip, sl
    1632:	d009      	beq.n	1648 <set_arm_clock+0x174>
			| CCM_ANALOG_PLL_ARM_DIV_SELECT(mult);
    1634:	f442 5200 	orr.w	r2, r2, #8192	; 0x2000
		CCM_ANALOG_PLL_ARM = CCM_ANALOG_PLL_ARM_POWERDOWN;
    1638:	f44f 5c80 	mov.w	ip, #4096	; 0x1000
    163c:	f8c5 c000 	str.w	ip, [r5]
		CCM_ANALOG_PLL_ARM = CCM_ANALOG_PLL_ARM_ENABLE
    1640:	602a      	str	r2, [r5, #0]
		while (!(CCM_ANALOG_PLL_ARM & CCM_ANALOG_PLL_ARM_LOCK)) ; // wait for lock
    1642:	682a      	ldr	r2, [r5, #0]
    1644:	2a00      	cmp	r2, #0
    1646:	dafc      	bge.n	1642 <set_arm_clock+0x16e>
	if ((CCM_CACRR & CCM_CACRR_ARM_PODF_MASK) != (div_arm - 1)) {
    1648:	4a46      	ldr	r2, [pc, #280]	; (1764 <set_arm_clock+0x290>)
    164a:	6915      	ldr	r5, [r2, #16]
    164c:	f005 0507 	and.w	r5, r5, #7
    1650:	429d      	cmp	r5, r3
    1652:	d003      	beq.n	165c <set_arm_clock+0x188>
		CCM_CACRR = CCM_CACRR_ARM_PODF(div_arm - 1);
    1654:	6113      	str	r3, [r2, #16]
		while (CCM_CDHIPR & CCM_CDHIPR_ARM_PODF_BUSY) ; // wait
    1656:	6c93      	ldr	r3, [r2, #72]	; 0x48
    1658:	03dd      	lsls	r5, r3, #15
    165a:	d4fc      	bmi.n	1656 <set_arm_clock+0x182>
	if ((cbcdr & CCM_CBCDR_AHB_PODF_MASK) != CCM_CBCDR_AHB_PODF(div_ahb - 1)) {
    165c:	f411 5fe0 	tst.w	r1, #7168	; 0x1c00
    1660:	d009      	beq.n	1676 <set_arm_clock+0x1a2>
		cbcdr &= ~CCM_CBCDR_AHB_PODF_MASK;
    1662:	f426 56e0 	bic.w	r6, r6, #7168	; 0x1c00
		cbcdr |= CCM_CBCDR_AHB_PODF(div_ahb - 1);
    1666:	f404 54e0 	and.w	r4, r4, #7168	; 0x1c00
		CCM_CBCDR = cbcdr;
    166a:	4a3e      	ldr	r2, [pc, #248]	; (1764 <set_arm_clock+0x290>)
		cbcdr |= CCM_CBCDR_AHB_PODF(div_ahb - 1);
    166c:	4326      	orrs	r6, r4
		CCM_CBCDR = cbcdr;
    166e:	6156      	str	r6, [r2, #20]
		while (CCM_CDHIPR & CCM_CDHIPR_AHB_PODF_BUSY); // wait
    1670:	6c93      	ldr	r3, [r2, #72]	; 0x48
    1672:	0799      	lsls	r1, r3, #30
    1674:	d4fc      	bmi.n	1670 <set_arm_clock+0x19c>
	uint32_t div_ipg = (frequency + 149999999) / 150000000;
    1676:	4947      	ldr	r1, [pc, #284]	; (1794 <set_arm_clock+0x2c0>)
	if (div_ipg > 4) div_ipg = 4;
    1678:	4a47      	ldr	r2, [pc, #284]	; (1798 <set_arm_clock+0x2c4>)
	uint32_t div_ipg = (frequency + 149999999) / 150000000;
    167a:	4401      	add	r1, r0
	if (div_ipg > 4) div_ipg = 4;
    167c:	4291      	cmp	r1, r2
    167e:	d83c      	bhi.n	16fa <set_arm_clock+0x226>
	uint32_t div_ipg = (frequency + 149999999) / 150000000;
    1680:	4b46      	ldr	r3, [pc, #280]	; (179c <set_arm_clock+0x2c8>)
    1682:	09c9      	lsrs	r1, r1, #7
    1684:	fba3 3101 	umull	r3, r1, r3, r1
    1688:	0b09      	lsrs	r1, r1, #12
	if ((cbcdr & CCM_CBCDR_IPG_PODF_MASK) != (CCM_CBCDR_IPG_PODF(div_ipg - 1))) {
    168a:	1e4b      	subs	r3, r1, #1
    168c:	021b      	lsls	r3, r3, #8
    168e:	ea86 0203 	eor.w	r2, r6, r3
    1692:	f412 7f40 	tst.w	r2, #768	; 0x300
    1696:	d006      	beq.n	16a6 <set_arm_clock+0x1d2>
		cbcdr &= ~CCM_CBCDR_IPG_PODF_MASK;
    1698:	f426 7640 	bic.w	r6, r6, #768	; 0x300
		cbcdr |= CCM_CBCDR_IPG_PODF(div_ipg - 1);
    169c:	f403 7340 	and.w	r3, r3, #768	; 0x300
		CCM_CBCDR = cbcdr;
    16a0:	4a30      	ldr	r2, [pc, #192]	; (1764 <set_arm_clock+0x290>)
		cbcdr |= CCM_CBCDR_IPG_PODF(div_ipg - 1);
    16a2:	4333      	orrs	r3, r6
		CCM_CBCDR = cbcdr;
    16a4:	6153      	str	r3, [r2, #20]
	CCM_CBCDR &= ~CCM_CBCDR_PERIPH_CLK_SEL;
    16a6:	4a2f      	ldr	r2, [pc, #188]	; (1764 <set_arm_clock+0x290>)
    16a8:	6953      	ldr	r3, [r2, #20]
    16aa:	f023 7300 	bic.w	r3, r3, #33554432	; 0x2000000
    16ae:	6153      	str	r3, [r2, #20]
	while (CCM_CDHIPR & CCM_CDHIPR_PERIPH_CLK_SEL_BUSY) ; // wait
    16b0:	6c93      	ldr	r3, [r2, #72]	; 0x48
    16b2:	069b      	lsls	r3, r3, #26
    16b4:	d4fc      	bmi.n	16b0 <set_arm_clock+0x1dc>
	scale_cpu_cycles_to_microseconds = 0xFFFFFFFFu / (uint32_t)(frequency / 1000000u);
    16b6:	4b3a      	ldr	r3, [pc, #232]	; (17a0 <set_arm_clock+0x2cc>)
	if ((dcdc & DCDC_REG3_TRG_MASK) > DCDC_REG3_TRG((voltage - 800) / 25)) {
    16b8:	454f      	cmp	r7, r9
	scale_cpu_cycles_to_microseconds = 0xFFFFFFFFu / (uint32_t)(frequency / 1000000u);
    16ba:	fba3 2300 	umull	r2, r3, r3, r0
    16be:	f04f 32ff 	mov.w	r2, #4294967295	; 0xffffffff
    16c2:	ea4f 4393 	mov.w	r3, r3, lsr #18
	F_BUS_ACTUAL = frequency / div_ipg;
    16c6:	fbb0 f1f1 	udiv	r1, r0, r1
	scale_cpu_cycles_to_microseconds = 0xFFFFFFFFu / (uint32_t)(frequency / 1000000u);
    16ca:	fbb2 f3f3 	udiv	r3, r2, r3
	F_CPU_ACTUAL = frequency;
    16ce:	4a35      	ldr	r2, [pc, #212]	; (17a4 <set_arm_clock+0x2d0>)
    16d0:	6010      	str	r0, [r2, #0]
	F_BUS_ACTUAL = frequency / div_ipg;
    16d2:	4a35      	ldr	r2, [pc, #212]	; (17a8 <set_arm_clock+0x2d4>)
    16d4:	6011      	str	r1, [r2, #0]
	scale_cpu_cycles_to_microseconds = 0xFFFFFFFFu / (uint32_t)(frequency / 1000000u);
    16d6:	4a35      	ldr	r2, [pc, #212]	; (17ac <set_arm_clock+0x2d8>)
    16d8:	6013      	str	r3, [r2, #0]
	if ((dcdc & DCDC_REG3_TRG_MASK) > DCDC_REG3_TRG((voltage - 800) / 25)) {
    16da:	d208      	bcs.n	16ee <set_arm_clock+0x21a>
		printf("Decreasing voltage to %u mV\n", voltage);
		dcdc &= ~DCDC_REG3_TRG_MASK;
    16dc:	f028 081f 	bic.w	r8, r8, #31
		dcdc |= DCDC_REG3_TRG((voltage - 800) / 25);
		DCDC_REG3 = dcdc;
    16e0:	4a21      	ldr	r2, [pc, #132]	; (1768 <set_arm_clock+0x294>)
		dcdc |= DCDC_REG3_TRG((voltage - 800) / 25);
    16e2:	ea48 0707 	orr.w	r7, r8, r7
		DCDC_REG3 = dcdc;
    16e6:	60d7      	str	r7, [r2, #12]
		while (!(DCDC_REG0 & DCDC_REG0_STS_DC_OK)) ; // wait voltage settling
    16e8:	6813      	ldr	r3, [r2, #0]
    16ea:	2b00      	cmp	r3, #0
    16ec:	dafc      	bge.n	16e8 <set_arm_clock+0x214>
	}

	return frequency;
}
    16ee:	e8bd 87f0 	ldmia.w	sp!, {r4, r5, r6, r7, r8, r9, sl, pc}
    16f2:	4673      	mov	r3, lr
    16f4:	e762      	b.n	15bc <set_arm_clock+0xe8>
    16f6:	2712      	movs	r7, #18
    16f8:	e718      	b.n	152c <set_arm_clock+0x58>
    16fa:	f44f 7340 	mov.w	r3, #768	; 0x300
	if (div_ipg > 4) div_ipg = 4;
    16fe:	2104      	movs	r1, #4
    1700:	e7c5      	b.n	168e <set_arm_clock+0x1ba>
	if ((cbcdr & CCM_CBCDR_AHB_PODF_MASK) != CCM_CBCDR_AHB_PODF(div_ahb - 1)) {
    1702:	f10c 31ff 	add.w	r1, ip, #4294967295	; 0xffffffff
	uint32_t mult = (frequency * div_arm * div_ahb + 6000000) / 12000000;
    1706:	4820      	ldr	r0, [pc, #128]	; (1788 <set_arm_clock+0x2b4>)
    1708:	2307      	movs	r3, #7
	if ((cbcdr & CCM_CBCDR_AHB_PODF_MASK) != CCM_CBCDR_AHB_PODF(div_ahb - 1)) {
    170a:	028c      	lsls	r4, r1, #10
	uint32_t mult = (frequency * div_arm * div_ahb + 6000000) / 12000000;
    170c:	4410      	add	r0, r2
	if ((cbcdr & CCM_CBCDR_AHB_PODF_MASK) != CCM_CBCDR_AHB_PODF(div_ahb - 1)) {
    170e:	ea86 2181 	eor.w	r1, r6, r1, lsl #10
	uint32_t mult = (frequency * div_arm * div_ahb + 6000000) / 12000000;
    1712:	4a27      	ldr	r2, [pc, #156]	; (17b0 <set_arm_clock+0x2dc>)
	  | CCM_ANALOG_PLL_ARM_ENABLE | CCM_ANALOG_PLL_ARM_DIV_SELECT(mult))) {
    1714:	f8df a0a8 	ldr.w	sl, [pc, #168]	; 17c0 <set_arm_clock+0x2ec>
	uint32_t mult = (frequency * div_arm * div_ahb + 6000000) / 12000000;
    1718:	fba2 2000 	umull	r2, r0, r2, r0
    171c:	0d02      	lsrs	r2, r0, #20
	frequency = mult * 12000000 / div_arm / div_ahb;
    171e:	4825      	ldr	r0, [pc, #148]	; (17b4 <set_arm_clock+0x2e0>)
    1720:	2a36      	cmp	r2, #54	; 0x36
    1722:	bf38      	it	cc
    1724:	2236      	movcc	r2, #54	; 0x36
    1726:	fb02 f000 	mul.w	r0, r2, r0
	  | CCM_ANALOG_PLL_ARM_ENABLE | CCM_ANALOG_PLL_ARM_DIV_SELECT(mult))) {
    172a:	ea42 0a0a 	orr.w	sl, r2, sl
    172e:	e774      	b.n	161a <set_arm_clock+0x146>
	if ((cbcdr & CCM_CBCDR_AHB_PODF_MASK) != CCM_CBCDR_AHB_PODF(div_ahb - 1)) {
    1730:	ea4f 248c 	mov.w	r4, ip, lsl #10
    1734:	2300      	movs	r3, #0
    1736:	ea86 218c 	eor.w	r1, r6, ip, lsl #10
				div_arm = 1;
    173a:	f04f 0e01 	mov.w	lr, #1
				div_ahb = div_ahb + 1;
    173e:	46ac      	mov	ip, r5
    1740:	e762      	b.n	1608 <set_arm_clock+0x134>
		if ((cbcdr & CCM_CBCDR_PERIPH_CLK2_PODF_MASK) != CCM_CBCDR_PERIPH_CLK2_PODF(div)) {
    1742:	461d      	mov	r5, r3
    1744:	f086 54c0 	eor.w	r4, r6, #402653184	; 0x18000000
    1748:	4611      	mov	r1, r2
    174a:	f04f 53c0 	mov.w	r3, #402653184	; 0x18000000
    174e:	e713      	b.n	1578 <set_arm_clock+0xa4>
	while (frequency * div_arm * div_ahb < 648000000) {
    1750:	2400      	movs	r4, #0
	uint32_t div_ahb = 1;
    1752:	f04f 0c01 	mov.w	ip, #1
	while (frequency * div_arm * div_ahb < 648000000) {
    1756:	4602      	mov	r2, r0
    1758:	4631      	mov	r1, r6
    175a:	4623      	mov	r3, r4
	uint32_t div_arm = 1;
    175c:	46e6      	mov	lr, ip
    175e:	e753      	b.n	1608 <set_arm_clock+0x134>
    1760:	1f78a400 	.word	0x1f78a400
    1764:	400fc000 	.word	0x400fc000
    1768:	40080000 	.word	0x40080000
    176c:	23c34600 	.word	0x23c34600
    1770:	004cb223 	.word	0x004cb223
    1774:	51eb851f 	.word	0x51eb851f
    1778:	016e3600 	.word	0x016e3600
    177c:	400d8000 	.word	0x400d8000
    1780:	80003040 	.word	0x80003040
    1784:	269fb1ff 	.word	0x269fb1ff
    1788:	005b8d80 	.word	0x005b8d80
    178c:	4df67eff 	.word	0x4df67eff
    1790:	4d3f6400 	.word	0x4d3f6400
    1794:	08f0d17f 	.word	0x08f0d17f
    1798:	2cb4177f 	.word	0x2cb4177f
    179c:	00e5109f 	.word	0x00e5109f
    17a0:	431bde83 	.word	0x431bde83
    17a4:	200005a4 	.word	0x200005a4
    17a8:	200005a0 	.word	0x200005a0
    17ac:	20000d24 	.word	0x20000d24
    17b0:	165e9f81 	.word	0x165e9f81
    17b4:	00b71b00 	.word	0x00b71b00
    17b8:	8000206c 	.word	0x8000206c
    17bc:	8001307f 	.word	0x8001307f
    17c0:	80002000 	.word	0x80002000

000017c4 <memcpy>:
	@ r1: src
	@ r2: len
#ifdef __ARM_FEATURE_UNALIGNED
	/* In case of UNALIGNED access supported, ip is not used in
	   function body.  */
	mov	ip, r0
    17c4:	4684      	mov	ip, r0
#else
	push	{r0}
#endif
	orr	r3, r1, r0
    17c6:	ea41 0300 	orr.w	r3, r1, r0
	ands	r3, r3, #3
    17ca:	f013 0303 	ands.w	r3, r3, #3
	bne	.Lmisaligned_copy
    17ce:	d16d      	bne.n	18ac <memcpy+0xe8>

.Lbig_block:
	subs	r2, __OPT_BIG_BLOCK_SIZE
    17d0:	3a40      	subs	r2, #64	; 0x40
	blo	.Lmid_block
    17d2:	d341      	bcc.n	1858 <memcpy+0x94>
.Lbig_block_loop:
	BEGIN_UNROLL_BIG_BLOCK
#ifdef __ARM_ARCH_7EM__
	ldr	r3, [r1], #4
	str	r3, [r0], #4
	END_UNROLL
    17d4:	f851 3b04 	ldr.w	r3, [r1], #4
    17d8:	f840 3b04 	str.w	r3, [r0], #4
    17dc:	f851 3b04 	ldr.w	r3, [r1], #4
    17e0:	f840 3b04 	str.w	r3, [r0], #4
    17e4:	f851 3b04 	ldr.w	r3, [r1], #4
    17e8:	f840 3b04 	str.w	r3, [r0], #4
    17ec:	f851 3b04 	ldr.w	r3, [r1], #4
    17f0:	f840 3b04 	str.w	r3, [r0], #4
    17f4:	f851 3b04 	ldr.w	r3, [r1], #4
    17f8:	f840 3b04 	str.w	r3, [r0], #4
    17fc:	f851 3b04 	ldr.w	r3, [r1], #4
    1800:	f840 3b04 	str.w	r3, [r0], #4
    1804:	f851 3b04 	ldr.w	r3, [r1], #4
    1808:	f840 3b04 	str.w	r3, [r0], #4
    180c:	f851 3b04 	ldr.w	r3, [r1], #4
    1810:	f840 3b04 	str.w	r3, [r0], #4
    1814:	f851 3b04 	ldr.w	r3, [r1], #4
    1818:	f840 3b04 	str.w	r3, [r0], #4
    181c:	f851 3b04 	ldr.w	r3, [r1], #4
    1820:	f840 3b04 	str.w	r3, [r0], #4
    1824:	f851 3b04 	ldr.w	r3, [r1], #4
    1828:	f840 3b04 	str.w	r3, [r0], #4
    182c:	f851 3b04 	ldr.w	r3, [r1], #4
    1830:	f840 3b04 	str.w	r3, [r0], #4
    1834:	f851 3b04 	ldr.w	r3, [r1], #4
    1838:	f840 3b04 	str.w	r3, [r0], #4
    183c:	f851 3b04 	ldr.w	r3, [r1], #4
    1840:	f840 3b04 	str.w	r3, [r0], #4
    1844:	f851 3b04 	ldr.w	r3, [r1], #4
    1848:	f840 3b04 	str.w	r3, [r0], #4
    184c:	f851 3b04 	ldr.w	r3, [r1], #4
    1850:	f840 3b04 	str.w	r3, [r0], #4
	str	r3, [r0, \offset]
	END_UNROLL
	adds	r0, __OPT_BIG_BLOCK_SIZE
	adds	r1, __OPT_BIG_BLOCK_SIZE
#endif
	subs	r2, __OPT_BIG_BLOCK_SIZE
    1854:	3a40      	subs	r2, #64	; 0x40
	bhs .Lbig_block_loop
    1856:	d2bd      	bcs.n	17d4 <memcpy+0x10>

.Lmid_block:
	adds	r2, __OPT_BIG_BLOCK_SIZE - __OPT_MID_BLOCK_SIZE
    1858:	3230      	adds	r2, #48	; 0x30
	blo	.Lcopy_word_by_word
    185a:	d311      	bcc.n	1880 <memcpy+0xbc>
.Lmid_block_loop:
	BEGIN_UNROLL_MID_BLOCK
#ifdef __ARM_ARCH_7EM__
	ldr	r3, [r1], #4
	str	r3, [r0], #4
	END_UNROLL
    185c:	f851 3b04 	ldr.w	r3, [r1], #4
    1860:	f840 3b04 	str.w	r3, [r0], #4
    1864:	f851 3b04 	ldr.w	r3, [r1], #4
    1868:	f840 3b04 	str.w	r3, [r0], #4
    186c:	f851 3b04 	ldr.w	r3, [r1], #4
    1870:	f840 3b04 	str.w	r3, [r0], #4
    1874:	f851 3b04 	ldr.w	r3, [r1], #4
    1878:	f840 3b04 	str.w	r3, [r0], #4
	str	r3, [r0, \offset]
	END_UNROLL
	adds    r0, __OPT_MID_BLOCK_SIZE
	adds    r1, __OPT_MID_BLOCK_SIZE
#endif
	subs	r2, __OPT_MID_BLOCK_SIZE
    187c:	3a10      	subs	r2, #16
	bhs	.Lmid_block_loop
    187e:	d2ed      	bcs.n	185c <memcpy+0x98>

.Lcopy_word_by_word:
	adds	r2, __OPT_MID_BLOCK_SIZE - 4
    1880:	320c      	adds	r2, #12
	blo	.Lcopy_less_than_4
    1882:	d305      	bcc.n	1890 <memcpy+0xcc>

	/* Kernel loop for small block copy */
	.align 2
.Lcopy_word_by_word_loop:
	ldr	r3, [r1], #4
    1884:	f851 3b04 	ldr.w	r3, [r1], #4
	str	r3, [r0], #4
    1888:	f840 3b04 	str.w	r3, [r0], #4
	subs	r2, #4
    188c:	3a04      	subs	r2, #4
	bhs	.Lcopy_word_by_word_loop
    188e:	d2f9      	bcs.n	1884 <memcpy+0xc0>

.Lcopy_less_than_4:
	adds	r2, #4
    1890:	3204      	adds	r2, #4
	beq	.Ldone
    1892:	d008      	beq.n	18a6 <memcpy+0xe2>

	lsls	r2, r2, #31
    1894:	07d2      	lsls	r2, r2, #31
	itt ne
    1896:	bf1c      	itt	ne
	ldrbne  r3, [r1], #1
    1898:	f811 3b01 	ldrbne.w	r3, [r1], #1
	strbne  r3, [r0], #1
    189c:	f800 3b01 	strbne.w	r3, [r0], #1

	bcc	.Ldone
    18a0:	d301      	bcc.n	18a6 <memcpy+0xe2>
#ifdef __ARM_FEATURE_UNALIGNED
	ldrh	r3, [r1]
    18a2:	880b      	ldrh	r3, [r1, #0]
	strh	r3, [r0]
    18a4:	8003      	strh	r3, [r0, #0]
	strb	r3, [r0, #1]
#endif /* __ARM_FEATURE_UNALIGNED */

.Ldone:
#ifdef __ARM_FEATURE_UNALIGNED
	mov	r0, ip
    18a6:	4660      	mov	r0, ip
#else
	pop	{r0}
#endif
	bx	lr
    18a8:	4770      	bx	lr
    18aa:	bf00      	nop
#define Ldst_aligned Lbig_block

	/* Copy word by word using LDR when alignment can be done in hardware,
	i.e., SCTLR.A is set, supporting unaligned access in LDR and STR.  */

	cmp	r2, #8
    18ac:	2a08      	cmp	r2, #8
	blo	.Lbyte_copy
    18ae:	d313      	bcc.n	18d8 <memcpy+0x114>

	/* if src is aligned, just go to the big block loop.  */
	lsls	r3, r1, #30
    18b0:	078b      	lsls	r3, r1, #30
	beq	.Ldst_aligned
    18b2:	d08d      	beq.n	17d0 <memcpy+0xc>
	handling of aligned src and misaligned dst need more overhead than
	otherwise.  By doing this the worst case is when initial src is aligned,
	additional up to 4 byte additional copy will executed, which is
	acceptable.  */

	ands	r3, r0, #3
    18b4:	f010 0303 	ands.w	r3, r0, #3
	beq	.Ldst_aligned
    18b8:	d08a      	beq.n	17d0 <memcpy+0xc>

	rsb	r3, #4
    18ba:	f1c3 0304 	rsb	r3, r3, #4
	subs	r2, r3
    18be:	1ad2      	subs	r2, r2, r3

	lsls    r3, r3, #31
    18c0:	07db      	lsls	r3, r3, #31
	itt ne
    18c2:	bf1c      	itt	ne
	ldrbne  r3, [r1], #1
    18c4:	f811 3b01 	ldrbne.w	r3, [r1], #1
	strbne  r3, [r0], #1
    18c8:	f800 3b01 	strbne.w	r3, [r0], #1

	bcc .Ldst_aligned
    18cc:	d380      	bcc.n	17d0 <memcpy+0xc>

#ifdef __ARM_FEATURE_UNALIGNED
	ldrh    r3, [r1], #2
    18ce:	f831 3b02 	ldrh.w	r3, [r1], #2
	strh    r3, [r0], #2
    18d2:	f820 3b02 	strh.w	r3, [r0], #2
	b	.Ldst_aligned
    18d6:	e77b      	b.n	17d0 <memcpy+0xc>
	pop	{r4, r5}

#endif /* __ARM_FEATURE_UNALIGNED */

.Lbyte_copy:
	subs	r2, #4
    18d8:	3a04      	subs	r2, #4
	blo	.Lcopy_less_than_4
    18da:	d3d9      	bcc.n	1890 <memcpy+0xcc>

.Lbyte_copy_loop:
	subs    r2, #1
    18dc:	3a01      	subs	r2, #1
	ldrb    r3, [r1], #1
    18de:	f811 3b01 	ldrb.w	r3, [r1], #1
	strb    r3, [r0], #1
    18e2:	f800 3b01 	strb.w	r3, [r0], #1
	bhs	.Lbyte_copy_loop
    18e6:	d2f9      	bcs.n	18dc <memcpy+0x118>

	ldrb	r3, [r1]
    18e8:	780b      	ldrb	r3, [r1, #0]
	strb	r3, [r0]
    18ea:	7003      	strb	r3, [r0, #0]
	ldrb	r3, [r1, #1]
    18ec:	784b      	ldrb	r3, [r1, #1]
	strb	r3, [r0, #1]
    18ee:	7043      	strb	r3, [r0, #1]
	ldrb	r3, [r1, #2]
    18f0:	788b      	ldrb	r3, [r1, #2]
	strb	r3, [r0, #2]
    18f2:	7083      	strb	r3, [r0, #2]

#ifdef __ARM_FEATURE_UNALIGNED
	mov	r0, ip
    18f4:	4660      	mov	r0, ip
#else
	pop	{r0}
#endif
	bx	lr
    18f6:	4770      	bx	lr

000018f8 <ultoa>:


char * ultoa(unsigned long val, char *buf, int radix)
{
	unsigned digit;
	int i=0, j;
    18f8:	f101 3cff 	add.w	ip, r1, #4294967295	; 0xffffffff
{
    18fc:	b570      	push	{r4, r5, r6, lr}
	char t;

	while (1) {
		digit = val % radix;
    18fe:	4666      	mov	r6, ip
	int i=0, j;
    1900:	2400      	movs	r4, #0
    1902:	e000      	b.n	1906 <ultoa+0xe>
		buf[i] = ((digit < 10) ? '0' + digit : 'A' + digit - 10);
		val /= radix;
		if (val == 0) break;
		i++;
    1904:	3401      	adds	r4, #1
		digit = val % radix;
    1906:	fbb0 f5f2 	udiv	r5, r0, r2
    190a:	fb02 0315 	mls	r3, r2, r5, r0
		buf[i] = ((digit < 10) ? '0' + digit : 'A' + digit - 10);
    190e:	2b09      	cmp	r3, #9
    1910:	f103 0e37 	add.w	lr, r3, #55	; 0x37
    1914:	f103 0330 	add.w	r3, r3, #48	; 0x30
    1918:	fa5f fe8e 	uxtb.w	lr, lr
    191c:	bf98      	it	ls
    191e:	fa5f fe83 	uxtbls.w	lr, r3
		if (val == 0) break;
    1922:	4290      	cmp	r0, r2
		val /= radix;
    1924:	4628      	mov	r0, r5
		buf[i] = ((digit < 10) ? '0' + digit : 'A' + digit - 10);
    1926:	f806 ef01 	strb.w	lr, [r6, #1]!
		if (val == 0) break;
    192a:	d2eb      	bcs.n	1904 <ultoa+0xc>
	}
	buf[i + 1] = 0;
    192c:	1c63      	adds	r3, r4, #1
    192e:	2200      	movs	r2, #0
    1930:	18c8      	adds	r0, r1, r3
    1932:	54ca      	strb	r2, [r1, r3]
	for (j=0; j < i; j++, i--) {
    1934:	b17c      	cbz	r4, 1956 <ultoa+0x5e>
		t = buf[j];
    1936:	4662      	mov	r2, ip
    1938:	f81c 5f01 	ldrb.w	r5, [ip, #1]!
		buf[j] = buf[i];
    193c:	f810 6d01 	ldrb.w	r6, [r0, #-1]!
	for (j=0; j < i; j++, i--) {
    1940:	eba1 030c 	sub.w	r3, r1, ip
    1944:	3202      	adds	r2, #2
		buf[j] = buf[i];
    1946:	f88c 6000 	strb.w	r6, [ip]
	for (j=0; j < i; j++, i--) {
    194a:	3b01      	subs	r3, #1
    194c:	1a52      	subs	r2, r2, r1
		buf[i] = t;
    194e:	7005      	strb	r5, [r0, #0]
	for (j=0; j < i; j++, i--) {
    1950:	4423      	add	r3, r4
    1952:	429a      	cmp	r2, r3
    1954:	dbef      	blt.n	1936 <ultoa+0x3e>
	}
	return buf;
}
    1956:	4608      	mov	r0, r1
    1958:	bd70      	pop	{r4, r5, r6, pc}
    195a:	bf00      	nop

0000195c <flexpwm_init>:
{
	int i;

	p->FCTRL0 = FLEXPWM_FCTRL0_FLVL(15); // logic high = fault
	p->FSTS0 = 0x000F; // clear fault status
	p->FFILT0 = 0;
    195c:	2300      	movs	r3, #0
	p->FSTS0 = 0x000F; // clear fault status
    195e:	220f      	movs	r2, #15
		p->SM[i].CTRL = FLEXPWM_SMCTRL_FULL;
		p->SM[i].OCTRL = 0;
		p->SM[i].DTCNT0 = 0;
		p->SM[i].INIT = 0;
		p->SM[i].VAL0 = 0;
		p->SM[i].VAL1 = 33464;
    1960:	f248 2cb8 	movw	ip, #33464	; 0x82b8
	for (i=0; i < 4; i++) {
    1964:	4619      	mov	r1, r3
{
    1966:	b510      	push	{r4, lr}
	p->FCTRL0 = FLEXPWM_FCTRL0_FLVL(15); // logic high = fault
    1968:	f44f 4470 	mov.w	r4, #61440	; 0xf000
		p->SM[i].CTRL = FLEXPWM_SMCTRL_FULL;
    196c:	f44f 6e80 	mov.w	lr, #1024	; 0x400
	p->FCTRL0 = FLEXPWM_FCTRL0_FLVL(15); // logic high = fault
    1970:	f8a0 418c 	strh.w	r4, [r0, #396]	; 0x18c
		p->SM[i].CTRL2 = FLEXPWM_SMCTRL2_INDEP | FLEXPWM_SMCTRL2_WAITEN
    1974:	f44f 4460 	mov.w	r4, #57344	; 0xe000
	p->FSTS0 = 0x000F; // clear fault status
    1978:	f8a0 218e 	strh.w	r2, [r0, #398]	; 0x18e
		p->SM[i].OCTRL = 0;
    197c:	460a      	mov	r2, r1
	p->FFILT0 = 0;
    197e:	f8a0 3190 	strh.w	r3, [r0, #400]	; 0x190
	p->MCTRL |= FLEXPWM_MCTRL_CLDOK(15);
    1982:	f8b0 3188 	ldrh.w	r3, [r0, #392]	; 0x188
    1986:	b29b      	uxth	r3, r3
    1988:	f043 03f0 	orr.w	r3, r3, #240	; 0xf0
    198c:	f8a0 3188 	strh.w	r3, [r0, #392]	; 0x188
		p->SM[i].CTRL2 = FLEXPWM_SMCTRL2_INDEP | FLEXPWM_SMCTRL2_WAITEN
    1990:	eb01 0341 	add.w	r3, r1, r1, lsl #1
	for (i=0; i < 4; i++) {
    1994:	3101      	adds	r1, #1
    1996:	eb00 1343 	add.w	r3, r0, r3, lsl #5
    199a:	2904      	cmp	r1, #4
		p->SM[i].CTRL2 = FLEXPWM_SMCTRL2_INDEP | FLEXPWM_SMCTRL2_WAITEN
    199c:	809c      	strh	r4, [r3, #4]
		p->SM[i].CTRL = FLEXPWM_SMCTRL_FULL;
    199e:	f8a3 e006 	strh.w	lr, [r3, #6]
		p->SM[i].OCTRL = 0;
    19a2:	845a      	strh	r2, [r3, #34]	; 0x22
		p->SM[i].DTCNT0 = 0;
    19a4:	861a      	strh	r2, [r3, #48]	; 0x30
		p->SM[i].INIT = 0;
    19a6:	805a      	strh	r2, [r3, #2]
		p->SM[i].VAL0 = 0;
    19a8:	815a      	strh	r2, [r3, #10]
		p->SM[i].VAL1 = 33464;
    19aa:	f8a3 c00e 	strh.w	ip, [r3, #14]
		p->SM[i].VAL2 = 0;
    19ae:	825a      	strh	r2, [r3, #18]
		p->SM[i].VAL3 = 0;
    19b0:	82da      	strh	r2, [r3, #22]
		p->SM[i].VAL4 = 0;
    19b2:	835a      	strh	r2, [r3, #26]
		p->SM[i].VAL5 = 0;
    19b4:	83da      	strh	r2, [r3, #30]
	for (i=0; i < 4; i++) {
    19b6:	d1eb      	bne.n	1990 <flexpwm_init+0x34>
	}
	p->MCTRL |= FLEXPWM_MCTRL_LDOK(15);
    19b8:	f8b0 3188 	ldrh.w	r3, [r0, #392]	; 0x188
    19bc:	b29b      	uxth	r3, r3
    19be:	f043 030f 	orr.w	r3, r3, #15
    19c2:	f8a0 3188 	strh.w	r3, [r0, #392]	; 0x188
	p->MCTRL |= FLEXPWM_MCTRL_RUN(15);
    19c6:	f8b0 3188 	ldrh.w	r3, [r0, #392]	; 0x188
    19ca:	b29b      	uxth	r3, r3
    19cc:	f443 6370 	orr.w	r3, r3, #3840	; 0xf00
    19d0:	f8a0 3188 	strh.w	r3, [r0, #392]	; 0x188
}
    19d4:	bd10      	pop	{r4, pc}
    19d6:	bf00      	nop

000019d8 <pwm_init>:
}

void pwm_init(void)
{
	//printf("pwm init\n");
	CCM_CCGR4 |= CCM_CCGR4_PWM1(CCM_CCGR_ON) | CCM_CCGR4_PWM2(CCM_CCGR_ON) |
    19d8:	4b37      	ldr	r3, [pc, #220]	; (1ab8 <pwm_init+0xe0>)
		CCM_CCGR4_PWM3(CCM_CCGR_ON) | CCM_CCGR4_PWM4(CCM_CCGR_ON);
	CCM_CCGR6 |= CCM_CCGR6_QTIMER1(CCM_CCGR_ON) | CCM_CCGR6_QTIMER2(CCM_CCGR_ON) |
    19da:	4a38      	ldr	r2, [pc, #224]	; (1abc <pwm_init+0xe4>)
	CCM_CCGR4 |= CCM_CCGR4_PWM1(CCM_CCGR_ON) | CCM_CCGR4_PWM2(CCM_CCGR_ON) |
    19dc:	6f99      	ldr	r1, [r3, #120]	; 0x78
		CCM_CCGR6_QTIMER3(CCM_CCGR_ON) | CCM_CCGR6_QTIMER4(CCM_CCGR_ON);
	flexpwm_init(&IMXRT_FLEXPWM1);
    19de:	4838      	ldr	r0, [pc, #224]	; (1ac0 <pwm_init+0xe8>)
	CCM_CCGR4 |= CCM_CCGR4_PWM1(CCM_CCGR_ON) | CCM_CCGR4_PWM2(CCM_CCGR_ON) |
    19e0:	f441 017f 	orr.w	r1, r1, #16711680	; 0xff0000
{
    19e4:	b570      	push	{r4, r5, r6, lr}
	CCM_CCGR4 |= CCM_CCGR4_PWM1(CCM_CCGR_ON) | CCM_CCGR4_PWM2(CCM_CCGR_ON) |
    19e6:	6799      	str	r1, [r3, #120]	; 0x78
		p->CH[i].CSCTRL = TMR_CSCTRL_CL1(1) | TMR_CSCTRL_ALT_LOAD;
    19e8:	f241 0601 	movw	r6, #4097	; 0x1001
	CCM_CCGR6 |= CCM_CCGR6_QTIMER1(CCM_CCGR_ON) | CCM_CCGR6_QTIMER2(CCM_CCGR_ON) |
    19ec:	f8d3 1080 	ldr.w	r1, [r3, #128]	; 0x80
		p->CH[i].LOAD = 24000;   // low time  (65537 - x) - 
    19f0:	f645 55c0 	movw	r5, #24000	; 0x5dc0
		p->CH[i].CTRL = TMR_CTRL_CM(1) | TMR_CTRL_PCS(8) |
    19f4:	f243 0426 	movw	r4, #12326	; 0x3026
	CCM_CCGR6 |= CCM_CCGR6_QTIMER1(CCM_CCGR_ON) | CCM_CCGR6_QTIMER2(CCM_CCGR_ON) |
    19f8:	430a      	orrs	r2, r1
    19fa:	f8c3 2080 	str.w	r2, [r3, #128]	; 0x80
	flexpwm_init(&IMXRT_FLEXPWM1);
    19fe:	f7ff ffad 	bl	195c <flexpwm_init>
	flexpwm_init(&IMXRT_FLEXPWM2);
    1a02:	f500 4080 	add.w	r0, r0, #16384	; 0x4000
    1a06:	f7ff ffa9 	bl	195c <flexpwm_init>
	flexpwm_init(&IMXRT_FLEXPWM3);
    1a0a:	f500 4080 	add.w	r0, r0, #16384	; 0x4000
    1a0e:	f7ff ffa5 	bl	195c <flexpwm_init>
	flexpwm_init(&IMXRT_FLEXPWM4);
    1a12:	f500 4080 	add.w	r0, r0, #16384	; 0x4000
    1a16:	f7ff ffa1 	bl	195c <flexpwm_init>
	for (i=0; i < 4; i++) {
    1a1a:	2200      	movs	r2, #0
		p->CH[i].CTRL = 0; // stop timer
    1a1c:	f5a0 1003 	sub.w	r0, r0, #2146304	; 0x20c000
		p->CH[i].SCTRL = TMR_SCTRL_OEN | TMR_SCTRL_OPS | TMR_SCTRL_VAL | TMR_SCTRL_FORCE;
    1a20:	f04f 0e0f 	mov.w	lr, #15
		p->CH[i].CTRL = 0; // stop timer
    1a24:	4611      	mov	r1, r2
    1a26:	eb00 1342 	add.w	r3, r0, r2, lsl #5
    1a2a:	ea4f 1c42 	mov.w	ip, r2, lsl #5
	for (i=0; i < 4; i++) {
    1a2e:	3201      	adds	r2, #1
		p->CH[i].CTRL = 0; // stop timer
    1a30:	8199      	strh	r1, [r3, #12]
	for (i=0; i < 4; i++) {
    1a32:	2a04      	cmp	r2, #4
		p->CH[i].CNTR = 0;
    1a34:	8159      	strh	r1, [r3, #10]
		p->CH[i].SCTRL = TMR_SCTRL_OEN | TMR_SCTRL_OPS | TMR_SCTRL_VAL | TMR_SCTRL_FORCE;
    1a36:	f8a3 e00e 	strh.w	lr, [r3, #14]
		p->CH[i].CSCTRL = TMR_CSCTRL_CL1(1) | TMR_CSCTRL_ALT_LOAD;
    1a3a:	829e      	strh	r6, [r3, #20]
		p->CH[i].LOAD = 24000;   // low time  (65537 - x) - 
    1a3c:	80dd      	strh	r5, [r3, #6]
		p->CH[i].COMP1 = 0;  // high time (0 = always low, max = LOAD-1)
    1a3e:	f820 100c 	strh.w	r1, [r0, ip]
		p->CH[i].CMPLD1 = 0;
    1a42:	8219      	strh	r1, [r3, #16]
		p->CH[i].CTRL = TMR_CTRL_CM(1) | TMR_CTRL_PCS(8) |
    1a44:	819c      	strh	r4, [r3, #12]
	for (i=0; i < 4; i++) {
    1a46:	d1ee      	bne.n	1a26 <pwm_init+0x4e>
    1a48:	2200      	movs	r2, #0
		p->CH[i].CTRL = 0; // stop timer
    1a4a:	481e      	ldr	r0, [pc, #120]	; (1ac4 <pwm_init+0xec>)
		p->CH[i].SCTRL = TMR_SCTRL_OEN | TMR_SCTRL_OPS | TMR_SCTRL_VAL | TMR_SCTRL_FORCE;
    1a4c:	f04f 0e0f 	mov.w	lr, #15
		p->CH[i].CSCTRL = TMR_CSCTRL_CL1(1) | TMR_CSCTRL_ALT_LOAD;
    1a50:	f241 0601 	movw	r6, #4097	; 0x1001
		p->CH[i].CTRL = 0; // stop timer
    1a54:	4611      	mov	r1, r2
		p->CH[i].LOAD = 24000;   // low time  (65537 - x) - 
    1a56:	f645 55c0 	movw	r5, #24000	; 0x5dc0
		p->CH[i].CTRL = TMR_CTRL_CM(1) | TMR_CTRL_PCS(8) |
    1a5a:	f243 0426 	movw	r4, #12326	; 0x3026
		p->CH[i].CTRL = 0; // stop timer
    1a5e:	eb00 1342 	add.w	r3, r0, r2, lsl #5
    1a62:	ea4f 1c42 	mov.w	ip, r2, lsl #5
	for (i=0; i < 4; i++) {
    1a66:	3201      	adds	r2, #1
		p->CH[i].CTRL = 0; // stop timer
    1a68:	8199      	strh	r1, [r3, #12]
	for (i=0; i < 4; i++) {
    1a6a:	2a04      	cmp	r2, #4
		p->CH[i].CNTR = 0;
    1a6c:	8159      	strh	r1, [r3, #10]
		p->CH[i].SCTRL = TMR_SCTRL_OEN | TMR_SCTRL_OPS | TMR_SCTRL_VAL | TMR_SCTRL_FORCE;
    1a6e:	f8a3 e00e 	strh.w	lr, [r3, #14]
		p->CH[i].CSCTRL = TMR_CSCTRL_CL1(1) | TMR_CSCTRL_ALT_LOAD;
    1a72:	829e      	strh	r6, [r3, #20]
		p->CH[i].LOAD = 24000;   // low time  (65537 - x) - 
    1a74:	80dd      	strh	r5, [r3, #6]
		p->CH[i].COMP1 = 0;  // high time (0 = always low, max = LOAD-1)
    1a76:	f820 100c 	strh.w	r1, [r0, ip]
		p->CH[i].CMPLD1 = 0;
    1a7a:	8219      	strh	r1, [r3, #16]
		p->CH[i].CTRL = TMR_CTRL_CM(1) | TMR_CTRL_PCS(8) |
    1a7c:	819c      	strh	r4, [r3, #12]
	for (i=0; i < 4; i++) {
    1a7e:	d1ee      	bne.n	1a5e <pwm_init+0x86>
    1a80:	2200      	movs	r2, #0
		p->CH[i].CTRL = 0; // stop timer
    1a82:	4811      	ldr	r0, [pc, #68]	; (1ac8 <pwm_init+0xf0>)
		p->CH[i].SCTRL = TMR_SCTRL_OEN | TMR_SCTRL_OPS | TMR_SCTRL_VAL | TMR_SCTRL_FORCE;
    1a84:	260f      	movs	r6, #15
		p->CH[i].CSCTRL = TMR_CSCTRL_CL1(1) | TMR_CSCTRL_ALT_LOAD;
    1a86:	f241 0501 	movw	r5, #4097	; 0x1001
		p->CH[i].CTRL = 0; // stop timer
    1a8a:	4611      	mov	r1, r2
		p->CH[i].LOAD = 24000;   // low time  (65537 - x) - 
    1a8c:	f645 54c0 	movw	r4, #24000	; 0x5dc0
		p->CH[i].CTRL = TMR_CTRL_CM(1) | TMR_CTRL_PCS(8) |
    1a90:	f243 0e26 	movw	lr, #12326	; 0x3026
		p->CH[i].CTRL = 0; // stop timer
    1a94:	eb00 1342 	add.w	r3, r0, r2, lsl #5
    1a98:	ea4f 1c42 	mov.w	ip, r2, lsl #5
	for (i=0; i < 4; i++) {
    1a9c:	3201      	adds	r2, #1
		p->CH[i].CTRL = 0; // stop timer
    1a9e:	8199      	strh	r1, [r3, #12]
	for (i=0; i < 4; i++) {
    1aa0:	2a04      	cmp	r2, #4
		p->CH[i].CNTR = 0;
    1aa2:	8159      	strh	r1, [r3, #10]
		p->CH[i].SCTRL = TMR_SCTRL_OEN | TMR_SCTRL_OPS | TMR_SCTRL_VAL | TMR_SCTRL_FORCE;
    1aa4:	81de      	strh	r6, [r3, #14]
		p->CH[i].CSCTRL = TMR_CSCTRL_CL1(1) | TMR_CSCTRL_ALT_LOAD;
    1aa6:	829d      	strh	r5, [r3, #20]
		p->CH[i].LOAD = 24000;   // low time  (65537 - x) - 
    1aa8:	80dc      	strh	r4, [r3, #6]
		p->CH[i].COMP1 = 0;  // high time (0 = always low, max = LOAD-1)
    1aaa:	f820 100c 	strh.w	r1, [r0, ip]
		p->CH[i].CMPLD1 = 0;
    1aae:	8219      	strh	r1, [r3, #16]
		p->CH[i].CTRL = TMR_CTRL_CM(1) | TMR_CTRL_PCS(8) |
    1ab0:	f8a3 e00c 	strh.w	lr, [r3, #12]
	for (i=0; i < 4; i++) {
    1ab4:	d1ee      	bne.n	1a94 <pwm_init+0xbc>
	quadtimer_init(&IMXRT_TMR1);
	quadtimer_init(&IMXRT_TMR2);
	quadtimer_init(&IMXRT_TMR3);
}
    1ab6:	bd70      	pop	{r4, r5, r6, pc}
    1ab8:	400fc000 	.word	0x400fc000
    1abc:	fc030000 	.word	0xfc030000
    1ac0:	403dc000 	.word	0x403dc000
    1ac4:	401e0000 	.word	0x401e0000
    1ac8:	401e4000 	.word	0x401e4000

00001acc <rtc_get>:
	uint32_t hi1 = SNVS_HPRTCMR;
    1acc:	4a07      	ldr	r2, [pc, #28]	; (1aec <rtc_get+0x20>)
    1ace:	6a50      	ldr	r0, [r2, #36]	; 0x24
	uint32_t lo1 = SNVS_HPRTCLR;
    1ad0:	6a93      	ldr	r3, [r2, #40]	; 0x28
		uint32_t hi2 = SNVS_HPRTCMR;
    1ad2:	4619      	mov	r1, r3
    1ad4:	4684      	mov	ip, r0
    1ad6:	6a50      	ldr	r0, [r2, #36]	; 0x24
		uint32_t lo2 = SNVS_HPRTCLR;
    1ad8:	6a93      	ldr	r3, [r2, #40]	; 0x28
		if (lo1 == lo2 && hi1 == hi2) {
    1ada:	4299      	cmp	r1, r3
    1adc:	d1f9      	bne.n	1ad2 <rtc_get+0x6>
    1ade:	4584      	cmp	ip, r0
    1ae0:	d1f7      	bne.n	1ad2 <rtc_get+0x6>
			return (hi2 << 17) | (lo2 >> 15);
    1ae2:	0bdb      	lsrs	r3, r3, #15
}
    1ae4:	ea43 4040 	orr.w	r0, r3, r0, lsl #17
    1ae8:	4770      	bx	lr
    1aea:	bf00      	nop
    1aec:	400d4000 	.word	0x400d4000

00001af0 <memset>:
    1af0:	0783      	lsls	r3, r0, #30
    1af2:	b530      	push	{r4, r5, lr}
    1af4:	d048      	beq.n	1b88 <memset+0x98>
    1af6:	1e54      	subs	r4, r2, #1
    1af8:	2a00      	cmp	r2, #0
    1afa:	d03f      	beq.n	1b7c <memset+0x8c>
    1afc:	b2ca      	uxtb	r2, r1
    1afe:	4603      	mov	r3, r0
    1b00:	e001      	b.n	1b06 <memset+0x16>
    1b02:	3c01      	subs	r4, #1
    1b04:	d33a      	bcc.n	1b7c <memset+0x8c>
    1b06:	f803 2b01 	strb.w	r2, [r3], #1
    1b0a:	079d      	lsls	r5, r3, #30
    1b0c:	d1f9      	bne.n	1b02 <memset+0x12>
    1b0e:	2c03      	cmp	r4, #3
    1b10:	d92d      	bls.n	1b6e <memset+0x7e>
    1b12:	b2cd      	uxtb	r5, r1
    1b14:	ea45 2505 	orr.w	r5, r5, r5, lsl #8
    1b18:	2c0f      	cmp	r4, #15
    1b1a:	ea45 4505 	orr.w	r5, r5, r5, lsl #16
    1b1e:	d936      	bls.n	1b8e <memset+0x9e>
    1b20:	f1a4 0210 	sub.w	r2, r4, #16
    1b24:	f022 0c0f 	bic.w	ip, r2, #15
    1b28:	f103 0e20 	add.w	lr, r3, #32
    1b2c:	44e6      	add	lr, ip
    1b2e:	ea4f 1c12 	mov.w	ip, r2, lsr #4
    1b32:	f103 0210 	add.w	r2, r3, #16
    1b36:	e942 5504 	strd	r5, r5, [r2, #-16]
    1b3a:	e942 5502 	strd	r5, r5, [r2, #-8]
    1b3e:	3210      	adds	r2, #16
    1b40:	4572      	cmp	r2, lr
    1b42:	d1f8      	bne.n	1b36 <memset+0x46>
    1b44:	f10c 0201 	add.w	r2, ip, #1
    1b48:	f014 0f0c 	tst.w	r4, #12
    1b4c:	eb03 1202 	add.w	r2, r3, r2, lsl #4
    1b50:	f004 0c0f 	and.w	ip, r4, #15
    1b54:	d013      	beq.n	1b7e <memset+0x8e>
    1b56:	f1ac 0304 	sub.w	r3, ip, #4
    1b5a:	f023 0303 	bic.w	r3, r3, #3
    1b5e:	3304      	adds	r3, #4
    1b60:	4413      	add	r3, r2
    1b62:	f842 5b04 	str.w	r5, [r2], #4
    1b66:	4293      	cmp	r3, r2
    1b68:	d1fb      	bne.n	1b62 <memset+0x72>
    1b6a:	f00c 0403 	and.w	r4, ip, #3
    1b6e:	b12c      	cbz	r4, 1b7c <memset+0x8c>
    1b70:	b2c9      	uxtb	r1, r1
    1b72:	441c      	add	r4, r3
    1b74:	f803 1b01 	strb.w	r1, [r3], #1
    1b78:	429c      	cmp	r4, r3
    1b7a:	d1fb      	bne.n	1b74 <memset+0x84>
    1b7c:	bd30      	pop	{r4, r5, pc}
    1b7e:	4664      	mov	r4, ip
    1b80:	4613      	mov	r3, r2
    1b82:	2c00      	cmp	r4, #0
    1b84:	d1f4      	bne.n	1b70 <memset+0x80>
    1b86:	e7f9      	b.n	1b7c <memset+0x8c>
    1b88:	4603      	mov	r3, r0
    1b8a:	4614      	mov	r4, r2
    1b8c:	e7bf      	b.n	1b0e <memset+0x1e>
    1b8e:	461a      	mov	r2, r3
    1b90:	46a4      	mov	ip, r4
    1b92:	e7e0      	b.n	1b56 <memset+0x66>

00001b94 <__libc_init_array>:
    1b94:	b570      	push	{r4, r5, r6, lr}
    1b96:	4e0d      	ldr	r6, [pc, #52]	; (1bcc <__libc_init_array+0x38>)
    1b98:	4d0d      	ldr	r5, [pc, #52]	; (1bd0 <__libc_init_array+0x3c>)
    1b9a:	1b76      	subs	r6, r6, r5
    1b9c:	10b6      	asrs	r6, r6, #2
    1b9e:	d006      	beq.n	1bae <__libc_init_array+0x1a>
    1ba0:	2400      	movs	r4, #0
    1ba2:	f855 3b04 	ldr.w	r3, [r5], #4
    1ba6:	3401      	adds	r4, #1
    1ba8:	4798      	blx	r3
    1baa:	42a6      	cmp	r6, r4
    1bac:	d1f9      	bne.n	1ba2 <__libc_init_array+0xe>
    1bae:	4e09      	ldr	r6, [pc, #36]	; (1bd4 <__libc_init_array+0x40>)
    1bb0:	4d09      	ldr	r5, [pc, #36]	; (1bd8 <__libc_init_array+0x44>)
    1bb2:	1b76      	subs	r6, r6, r5
    1bb4:	f000 f818 	bl	1be8 <___init_veneer>
    1bb8:	10b6      	asrs	r6, r6, #2
    1bba:	d006      	beq.n	1bca <__libc_init_array+0x36>
    1bbc:	2400      	movs	r4, #0
    1bbe:	f855 3b04 	ldr.w	r3, [r5], #4
    1bc2:	3401      	adds	r4, #1
    1bc4:	4798      	blx	r3
    1bc6:	42a6      	cmp	r6, r4
    1bc8:	d1f9      	bne.n	1bbe <__libc_init_array+0x2a>
    1bca:	bd70      	pop	{r4, r5, r6, pc}
    1bcc:	60001af0 	.word	0x60001af0
    1bd0:	60001af0 	.word	0x60001af0
    1bd4:	60001af4 	.word	0x60001af4
    1bd8:	60001af0 	.word	0x60001af0
    1bdc:	00000000 	.word	0x00000000

00001be0 <___reboot_Teensyduino__veneer>:
    1be0:	f85f f000 	ldr.w	pc, [pc]	; 1be4 <___reboot_Teensyduino__veneer+0x4>
    1be4:	60001a59 	.word	0x60001a59

00001be8 <___init_veneer>:
    1be8:	f85f f000 	ldr.w	pc, [pc]	; 1bec <___init_veneer+0x4>
    1bec:	60001aad 	.word	0x60001aad

Disassembly of section .fini:

00001bf0 <_fini>:
    1bf0:	b5f8      	push	{r3, r4, r5, r6, r7, lr}
    1bf2:	bf00      	nop
